(lp0
ccopy_reg
_reconstructor
p1
(cnetworkx.classes.graph
Graph
p2
c__builtin__
object
p3
Ntp4
Rp5
(dp6
S'node'
p7
(dp8
I4
(dp9
sI262
(dp10
sI136
(dp11
sI266
(dp12
sI270
(dp13
sI23
(dp14
sI284
(dp15
sI165
(dp16
sI45
(dp17
sI175
(dp18
sI53
(dp19
sI311
(dp20
sI63
(dp21
sI323
(dp22
sI68
(dp23
sI328
(dp24
sI208
(dp25
sI221
(dp26
sI227
(dp27
sI102
(dp28
sI233
(dp29
sI106
(dp30
sI364
(dp31
sI371
(dp32
sI382
(dp33
ssS'node_dict_factory'
p34
c__builtin__
dict
p35
sS'edge_attr_dict_factory'
p36
g35
sS'edge'
p37
(dp38
I4
(dp39
I227
(dp40
sI165
(dp41
sI102
(dp42
sI233
(dp43
sI270
(dp44
sI175
(dp45
sI371
(dp46
sI53
(dp47
sI382
(dp48
sI63
(dp49
ssI262
(dp50
I328
(dp51
sI106
(dp52
ssI136
(dp53
I227
(dp54
sI45
(dp55
sI208
(dp56
sI221
(dp57
sI382
(dp58
sI63
(dp59
ssI266
(dp60
I68
(dp61
sI284
(dp62
sI221
(dp63
ssI270
(dp64
I227
(dp65
sI4
g44
sI102
(dp66
sI233
(dp67
sI175
(dp68
sI371
(dp69
sI53
(dp70
sI68
(dp71
sI221
(dp72
sI382
(dp73
ssI23
(dp74
I311
(dp75
ssI284
(dp76
I266
g62
sI68
(dp77
ssI165
(dp78
I227
(dp79
sI4
g41
sI102
(dp80
sI233
(dp81
sI45
(dp82
sI175
(dp83
sI371
(dp84
ssI45
(dp85
I227
(dp86
sI165
g82
sI102
(dp87
sI136
g55
sI208
(dp88
sI63
(dp89
ssI175
(dp90
I227
(dp91
sI4
g45
sI165
g83
sI102
(dp92
sI233
(dp93
sI270
g68
sI382
(dp94
ssI53
(dp95
I227
(dp96
sI4
g47
sI233
(dp97
sI270
g70
sI371
(dp98
sI382
(dp99
ssI311
(dp100
I23
g75
ssI63
(dp101
I208
(dp102
sI136
g59
sI4
g49
sI45
g89
ssI323
(dp103
I233
(dp104
sI227
(dp105
sI364
(dp106
sI221
(dp107
sI382
(dp108
ssI68
(dp109
I102
(dp110
sI328
(dp111
sI266
g61
sI270
g71
sI371
(dp112
sI284
g77
sI221
(dp113
sI382
(dp114
ssI328
(dp115
I106
(dp116
sI68
g111
sI221
(dp117
sI262
g51
ssI208
(dp118
I136
g56
sI45
g88
sI102
(dp119
sI63
g102
ssI221
(dp120
I323
g107
sI68
g113
sI102
(dp121
sI328
g117
sI266
g63
sI270
g72
sI136
g57
sI227
(dp122
sI382
(dp123
ssI227
(dp124
I323
g105
sI4
g40
sI165
g79
sI102
(dp125
sI136
g54
sI233
(dp126
sI45
g86
sI270
g65
sI175
g91
sI371
(dp127
sI53
g96
sI221
g122
sI382
(dp128
ssI102
(dp129
I227
g125
sI4
g42
sI165
g80
sI233
(dp130
sI364
(dp131
sI45
g87
sI270
g66
sI175
g92
sI208
g119
sI371
(dp132
sI68
g110
sI221
g121
sI382
(dp133
ssI233
(dp134
I227
g126
sI4
g43
sI165
g81
sI102
g130
sI323
g104
sI364
(dp135
sI270
g67
sI175
g93
sI371
(dp136
sI53
g97
sI382
(dp137
ssI106
(dp138
I328
g116
sI262
g52
ssI364
(dp139
I233
g135
sI323
g106
sI102
g131
ssI371
(dp140
I227
g127
sI4
g46
sI165
g84
sI102
g132
sI233
g136
sI270
g69
sI53
g98
sI68
g112
sI382
(dp141
ssI382
(dp142
I227
g128
sI4
g48
sI102
g133
sI136
g58
sI233
g137
sI323
g108
sI270
g73
sI175
g94
sI371
g141
sI53
g99
sI68
g114
sI221
g123
sssS'graph'
p143
(dp144
sS'adjlist_dict_factory'
p145
g35
sS'adj'
p146
g38
sbag1
(g2
g3
Ntp147
Rp148
(dp149
g7
(dp150
I258
(dp151
sI131
(dp152
sI4
(dp153
sI262
(dp154
sI136
(dp155
sI266
(dp156
sI395
(dp157
sI140
(dp158
sI270
(dp159
sI149
(dp160
sI278
(dp161
sI23
(dp162
sI284
(dp163
sI31
(dp164
sI288
(dp165
sI165
(dp166
sI40
(dp167
sI169
(dp168
sI300
(dp169
sI45
(dp170
sI175
(dp171
sI304
(dp172
sI49
(dp173
sI179
(dp174
sI53
(dp175
sI311
(dp176
sI316
(dp177
sI63
(dp178
sI323
(dp179
sI328
(dp180
sI208
(dp181
sI156
(dp182
sI84
(dp183
sI398
(dp184
sI346
(dp185
sI95
(dp186
sI227
(dp187
sI102
(dp188
sI233
(dp189
sI364
(dp190
sI371
(dp191
sI244
(dp192
sI374
(dp193
sI72
(dp194
sI382
(dp195
sI255
(dp196
ssg34
g35
sg36
g35
sg37
(dp197
I258
(dp198
I288
(dp199
sI49
(dp200
sI140
(dp201
ssI131
(dp202
I40
(dp203
sI169
(dp204
sI300
(dp205
sI49
(dp206
sI316
(dp207
sI255
(dp208
ssI4
(dp209
I227
(dp210
sI179
(dp211
sI175
(dp212
sI371
(dp213
sI149
(dp214
sI382
(dp215
ssI262
(dp216
I328
(dp217
ssI136
(dp218
I371
(dp219
sI227
(dp220
ssI266
(dp221
I284
(dp222
ssI395
(dp223
I346
(dp224
sI316
(dp225
sI95
(dp226
ssI140
(dp227
I288
(dp228
sI49
(dp229
sI258
g201
sI31
(dp230
sI311
(dp231
ssI270
(dp232
I227
(dp233
sI165
(dp234
sI102
(dp235
sI233
(dp236
sI175
(dp237
sI371
(dp238
sI53
(dp239
sI382
(dp240
sI31
(dp241
ssI149
(dp242
I72
(dp243
sI304
(dp244
sI227
(dp245
sI244
(dp246
sI4
g214
ssI278
(dp247
I156
(dp248
ssI23
(dp249
I311
(dp250
ssI284
(dp251
I266
g222
ssI31
(dp252
I179
(dp253
sI140
g230
sI270
g241
sI374
(dp254
sI311
(dp255
ssI288
(dp256
I49
(dp257
sI258
g199
sI140
g228
sI300
(dp258
sI255
(dp259
ssI165
(dp260
I270
g234
ssI40
(dp261
I169
(dp262
sI131
g203
sI300
(dp263
sI255
(dp264
ssI169
(dp265
I40
g262
sI131
g204
sI300
(dp266
sI255
(dp267
ssI300
(dp268
I40
g263
sI169
g266
sI131
g205
sI288
g258
sI255
(dp269
ssI45
(dp270
I63
(dp271
ssI175
(dp272
I227
(dp273
sI4
g212
sI179
(dp274
sI102
(dp275
sI233
(dp276
sI270
g237
sI371
(dp277
sI53
(dp278
sI382
(dp279
ssI304
(dp280
I72
(dp281
sI244
(dp282
sI149
g244
ssI49
(dp283
I288
g257
sI258
g200
sI131
g206
sI140
g229
sI255
(dp284
ssI179
(dp285
I175
g274
sI4
g211
sI31
g253
ssI53
(dp286
I371
(dp287
sI227
(dp288
sI382
(dp289
sI270
g239
sI175
g278
ssI311
(dp290
I31
g255
sI140
g231
sI23
g250
ssI316
(dp291
I131
g207
sI72
(dp292
sI395
g225
sI346
(dp293
sI95
(dp294
sI255
(dp295
ssI63
(dp296
I208
(dp297
sI45
g271
ssI323
(dp298
I364
(dp299
sI102
(dp300
ssI328
(dp301
I262
g217
ssI208
(dp302
I63
g297
ssI156
(dp303
I278
g248
ssI84
(dp304
I398
(dp305
ssI398
(dp306
I84
g305
ssI346
(dp307
I395
g224
sI316
g293
sI95
(dp308
ssI95
(dp309
I346
g308
sI395
g226
sI316
g294
ssI227
(dp310
I4
g210
sI102
(dp311
sI136
g220
sI233
(dp312
sI270
g233
sI175
g273
sI72
(dp313
sI371
(dp314
sI244
(dp315
sI53
g288
sI382
(dp316
sI149
g245
ssI102
(dp317
I323
g300
sI227
g311
sI233
(dp318
sI270
g235
sI175
g275
sI371
(dp319
sI244
(dp320
sI382
(dp321
ssI233
(dp322
I227
g312
sI102
g318
sI270
g236
sI175
g276
sI371
(dp323
sI382
(dp324
ssI364
(dp325
I323
g299
ssI371
(dp326
I227
g314
sI4
g213
sI102
g319
sI136
g219
sI233
g323
sI270
g238
sI175
g277
sI53
g287
sI382
(dp327
ssI244
(dp328
I72
(dp329
sI304
g282
sI227
g315
sI149
g246
sI102
g320
ssI374
(dp330
I31
g254
ssI72
(dp331
I304
g281
sI316
g292
sI227
g313
sI244
g329
sI149
g243
ssI382
(dp332
I227
g316
sI4
g215
sI102
g321
sI233
g324
sI270
g240
sI175
g279
sI371
g327
sI53
g289
ssI255
(dp333
I288
g259
sI131
g208
sI40
g264
sI169
g267
sI300
g269
sI49
g284
sI316
g295
sssg143
(dp334
sg145
g35
sg146
g197
sbag1
(g2
g3
Ntp335
Rp336
(dp337
g7
(dp338
I328
(dp339
sI0
(dp340
sI258
(dp341
sI131
(dp342
sI4
(dp343
sI342
(dp344
sI262
(dp345
sI266
(dp346
sI395
(dp347
sI140
(dp348
sI270
(dp349
sI144
(dp350
sI387
(dp351
sI149
(dp352
sI278
(dp353
sI23
(dp354
sI218
(dp355
sI358
(dp356
sI156
(dp357
sI346
(dp358
sI31
(dp359
sI288
(dp360
sI36
(dp361
sI294
(dp362
sI49
(dp363
sI40
(dp364
sI169
(dp365
sI14
(dp366
sI300
(dp367
sI175
(dp368
sI304
(dp369
sI200
(dp370
sI179
(dp371
sI308
(dp372
sI311
(dp373
sI58
(dp374
sI59
(dp375
sI316
(dp376
sI406
(dp377
sI64
(dp378
sI193
(dp379
sI323
(dp380
sI118
(dp381
sI19
(dp382
sI72
(dp383
sI204
(dp384
sI209
(dp385
sI84
(dp386
sI398
(dp387
sI284
(dp388
sI215
(dp389
sI90
(dp390
sI95
(dp391
sI354
(dp392
sI230
(dp393
sI102
(dp394
sI233
(dp395
sI106
(dp396
sI237
(dp397
sI111
(dp398
sI371
(dp399
sI244
(dp400
sI374
(dp401
sI248
(dp402
sI382
(dp403
sI255
(dp404
ssg34
g35
sg36
g35
sg37
(dp405
I328
(dp406
I316
(dp407
sI106
(dp408
sI84
(dp409
sI262
(dp410
sI215
(dp411
ssI0
(dp412
I64
(dp413
sI72
(dp414
ssI258
(dp415
I288
(dp416
sI49
(dp417
sI131
(dp418
sI140
(dp419
ssI131
(dp420
I288
(dp421
sI258
g418
sI40
(dp422
sI169
(dp423
sI300
(dp424
sI31
(dp425
sI255
(dp426
ssI4
(dp427
I398
(dp428
ssI342
(dp429
I193
(dp430
sI387
(dp431
sI294
(dp432
sI59
(dp433
ssI262
(dp434
I328
g410
ssI266
(dp435
I284
(dp436
ssI395
(dp437
I40
(dp438
sI346
(dp439
sI215
(dp440
sI316
(dp441
sI95
(dp442
ssI140
(dp443
I288
(dp444
sI49
(dp445
sI258
g419
ssI270
(dp446
I179
(dp447
sI84
(dp448
sI102
(dp449
sI382
(dp450
sI175
(dp451
ssI144
(dp452
I248
(dp453
sI19
(dp454
sI118
(dp455
ssI387
(dp456
I193
(dp457
sI59
(dp458
sI294
(dp459
sI342
g431
ssI149
(dp460
I72
(dp461
sI304
(dp462
sI244
(dp463
sI215
(dp464
ssI278
(dp465
I288
(dp466
sI200
(dp467
sI215
(dp468
sI111
(dp469
sI23
(dp470
sI156
(dp471
ssI23
(dp472
I278
g470
sI311
(dp473
ssI218
(dp474
I36
(dp475
sI308
(dp476
sI300
(dp477
ssI358
(dp478
I354
(dp479
sI14
(dp480
ssI156
(dp481
I200
(dp482
sI204
(dp483
sI278
g471
ssI346
(dp484
I58
(dp485
sI395
g439
sI316
(dp486
sI95
(dp487
ssI31
(dp488
I200
(dp489
sI131
g425
sI215
(dp490
sI255
(dp491
ssI288
(dp492
I258
g416
sI131
g421
sI140
g444
sI300
(dp493
sI49
(dp494
sI278
g466
sI58
(dp495
sI255
(dp496
ssI36
(dp497
I300
(dp498
sI218
g475
sI308
(dp499
sI95
(dp500
ssI294
(dp501
I193
(dp502
sI387
g459
sI300
(dp503
sI342
g432
sI59
(dp504
sI316
(dp505
ssI49
(dp506
I288
g494
sI258
g417
sI140
g445
sI255
(dp507
ssI40
(dp508
I131
g422
sI169
(dp509
sI395
g438
sI300
(dp510
sI215
(dp511
sI255
(dp512
ssI169
(dp513
I40
g509
sI131
g423
sI300
(dp514
sI255
(dp515
ssI14
(dp516
I354
(dp517
sI358
g480
ssI300
(dp518
I288
g493
sI323
(dp519
sI36
g498
sI294
g503
sI40
g510
sI169
g514
sI131
g424
sI215
(dp520
sI218
g477
sI255
(dp521
ssI175
(dp522
I102
(dp523
sI179
(dp524
sI382
(dp525
sI270
g451
ssI304
(dp526
I72
(dp527
sI244
(dp528
sI149
g462
ssI200
(dp529
I374
(dp530
sI156
g482
sI84
(dp531
sI278
g467
sI215
(dp532
sI316
(dp533
sI31
g489
ssI179
(dp534
I102
(dp535
sI270
g447
sI382
(dp536
sI175
g524
ssI308
(dp537
I218
g476
sI36
g499
ssI311
(dp538
I23
g473
ssI58
(dp539
I288
g495
sI346
g485
sI255
(dp540
sI215
(dp541
ssI59
(dp542
I193
(dp543
sI387
g458
sI294
g504
sI342
g433
ssI316
(dp544
I294
g505
sI209
(dp545
sI328
g407
sI395
g441
sI398
(dp546
sI200
g533
sI84
(dp547
sI215
(dp548
sI346
g486
sI255
(dp549
sI95
(dp550
ssI406
(dp551
I237
(dp552
sI230
(dp553
ssI64
(dp554
I0
g413
sI209
(dp555
sI204
(dp556
sI111
(dp557
ssI193
(dp558
I59
g543
sI387
g457
sI294
g502
sI342
g430
ssI323
(dp559
I300
g519
ssI118
(dp560
I248
(dp561
sI144
g455
sI19
(dp562
ssI19
(dp563
I248
(dp564
sI144
g454
sI118
g562
ssI72
(dp565
I304
g527
sI0
g414
sI244
(dp566
sI149
g461
ssI204
(dp567
I64
g556
sI90
(dp568
sI255
(dp569
sI156
g483
sI111
(dp570
ssI209
(dp571
I64
g555
sI316
g545
sI95
(dp572
ssI84
(dp573
I328
g409
sI233
(dp574
sI398
(dp575
sI200
g531
sI270
g448
sI215
(dp576
sI316
g547
sI95
(dp577
ssI398
(dp578
I84
g575
sI316
g546
sI4
g428
sI215
(dp579
ssI284
(dp580
I266
g436
ssI215
(dp581
I328
g411
sI200
g532
sI395
g440
sI300
g520
sI398
g579
sI40
g511
sI244
(dp582
sI149
g464
sI278
g468
sI84
g576
sI58
g541
sI31
g490
sI316
g548
sI255
(dp583
ssI90
(dp584
I204
g568
sI111
(dp585
ssI95
(dp586
I36
g500
sI395
g442
sI209
g572
sI84
g577
sI346
g487
sI316
g550
sI382
(dp587
sI255
(dp588
ssI354
(dp589
I358
g479
sI14
g517
ssI230
(dp590
I237
(dp591
sI406
g553
ssI102
(dp592
I179
g535
sI371
(dp593
sI382
(dp594
sI270
g449
sI175
g523
ssI233
(dp595
I84
g574
ssI106
(dp596
I328
g408
ssI237
(dp597
I230
g591
sI406
g552
ssI111
(dp598
I64
g557
sI90
g585
sI204
g570
sI278
g469
sI255
(dp599
ssI371
(dp600
I102
g593
ssI244
(dp601
I72
g566
sI304
g528
sI149
g463
sI215
g582
ssI374
(dp602
I200
g530
ssI248
(dp603
I144
g453
sI19
g564
sI118
g561
ssI382
(dp604
I175
g525
sI179
g536
sI102
g594
sI270
g450
sI95
g587
ssI255
(dp605
I288
g496
sI131
g426
sI40
g512
sI169
g515
sI300
g521
sI111
g599
sI49
g507
sI204
g569
sI215
g583
sI58
g540
sI95
g588
sI316
g549
sI31
g491
sssg143
(dp606
sg145
g35
sg146
g405
sbag1
(g2
g3
Ntp607
Rp608
(dp609
g7
(dp610
I0
(dp611
sI131
(dp612
sI133
(dp613
sI8
(dp614
sI364
(dp615
sI266
(dp616
sI395
(dp617
sI346
(dp618
sI14
(dp619
sI365
(dp620
sI144
(dp621
sI402
(dp622
sI19
(dp623
sI149
(dp624
sI406
(dp625
sI23
(dp626
sI24
(dp627
sI284
(dp628
sI218
(dp629
sI5
(dp630
sI160
(dp631
sI289
(dp632
sI278
(dp633
sI36
(dp634
sI294
(dp635
sI40
(dp636
sI169
(dp637
sI176
(dp638
sI300
(dp639
sI46
(dp640
sI304
(dp641
sI72
(dp642
sI308
(dp643
sI54
(dp644
sI311
(dp645
sI312
(dp646
sI180
(dp647
sI59
(dp648
sI316
(dp649
sI64
(dp650
sI193
(dp651
sI324
(dp652
sI69
(dp653
sI32
(dp654
sI200
(dp655
sI375
(dp656
sI204
(dp657
sI372
(dp658
sI141
(dp659
sI336
(dp660
sI209
(dp661
sI156
(dp662
sI84
(dp663
sI398
(dp664
sI342
(dp665
sI215
(dp666
sI166
(dp667
sI90
(dp668
sI271
(dp669
sI222
(dp670
sI95
(dp671
sI107
(dp672
sI354
(dp673
sI228
(dp674
sI230
(dp675
sI358
(dp676
sI81
(dp677
sI361
(dp678
sI234
(dp679
sI103
(dp680
sI387
(dp681
sI237
(dp682
sI111
(dp683
sI241
(dp684
sI275
(dp685
sI244
(dp686
sI118
(dp687
sI41
(dp688
sI248
(dp689
sI378
(dp690
sI383
(dp691
sI124
(dp692
sI255
(dp693
ssg34
g35
sg36
g35
sg37
(dp694
I0
(dp695
I131
(dp696
ssI131
(dp697
I160
(dp698
sI0
g696
sI40
(dp699
sI169
(dp700
sI300
(dp701
sI336
(dp702
sI244
(dp703
sI118
(dp704
sI41
(dp705
sI248
(dp706
sI255
(dp707
ssI133
(dp708
I8
(dp709
sI81
(dp710
sI402
(dp711
ssI8
(dp712
I81
(dp713
sI133
g709
ssI364
(dp714
I24
(dp715
ssI266
(dp716
I284
(dp717
ssI395
(dp718
I336
(dp719
sI300
(dp720
sI144
(dp721
sI346
(dp722
sI316
(dp723
sI95
(dp724
ssI346
(dp725
I316
(dp726
sI395
g722
sI284
(dp727
sI289
(dp728
sI215
(dp729
ssI14
(dp730
I160
(dp731
sI32
(dp732
sI354
(dp733
sI358
(dp734
sI200
(dp735
sI111
(dp736
sI336
(dp737
sI81
(dp738
sI278
(dp739
sI218
(dp740
sI59
(dp741
sI383
(dp742
ssI365
(dp743
I32
(dp744
sI228
(dp745
sI5
(dp746
sI103
(dp747
sI176
(dp748
sI24
(dp749
sI312
(dp750
ssI144
(dp751
I406
(dp752
sI395
g721
sI300
(dp753
sI336
(dp754
sI19
(dp755
sI118
(dp756
sI215
(dp757
sI248
(dp758
ssI402
(dp759
I289
(dp760
sI133
g711
sI358
(dp761
sI81
(dp762
sI241
(dp763
sI378
(dp764
sI124
(dp765
ssI19
(dp766
I387
(dp767
sI118
(dp768
sI144
g755
sI308
(dp769
sI278
(dp770
sI59
(dp771
sI284
(dp772
sI95
(dp773
ssI149
(dp774
I72
(dp775
sI304
(dp776
sI244
(dp777
ssI406
(dp778
I144
g752
sI358
(dp779
sI244
(dp780
sI237
(dp781
sI230
(dp782
ssI23
(dp783
I248
(dp784
sI118
(dp785
sI311
(dp786
ssI24
(dp787
I228
(dp788
sI5
(dp789
sI364
g715
sI365
g749
sI46
(dp790
sI176
(dp791
sI312
(dp792
sI69
(dp793
ssI284
(dp794
I200
(dp795
sI266
g717
sI19
g772
sI346
g727
sI95
(dp796
ssI218
(dp797
I36
(dp798
sI358
(dp799
sI14
g740
sI336
(dp800
sI81
(dp801
sI308
(dp802
ssI5
(dp803
I176
(dp804
sI24
g789
sI365
g746
sI222
(dp805
sI271
(dp806
ssI160
(dp807
I354
(dp808
sI131
g698
sI230
(dp809
sI358
(dp810
sI300
(dp811
sI14
g731
sI336
(dp812
sI81
(dp813
sI255
(dp814
ssI289
(dp815
I402
g760
sI346
g728
sI141
(dp816
ssI278
(dp817
I14
g739
sI336
(dp818
sI19
g770
sI118
(dp819
sI156
(dp820
sI95
(dp821
ssI36
(dp822
I200
(dp823
sI336
(dp824
sI218
g798
sI308
(dp825
ssI294
(dp826
I193
(dp827
sI59
(dp828
sI387
(dp829
sI342
(dp830
ssI40
(dp831
I255
(dp832
sI131
g699
sI358
(dp833
sI95
(dp834
ssI169
(dp835
I131
g700
sI300
(dp836
sI204
(dp837
sI255
(dp838
sI316
(dp839
sI95
(dp840
ssI176
(dp841
I228
(dp842
sI5
g804
sI365
g748
sI312
(dp843
sI180
(dp844
sI54
(dp845
sI24
g791
sI69
(dp846
ssI300
(dp847
I160
g811
sI193
(dp848
sI131
g701
sI230
(dp849
sI358
(dp850
sI169
g836
sI395
g720
sI204
(dp851
sI144
g753
sI118
(dp852
sI248
(dp853
sI255
(dp854
sI316
(dp855
sI95
(dp856
ssI46
(dp857
I24
g790
sI69
(dp858
ssI304
(dp859
I72
(dp860
sI244
(dp861
sI149
g776
ssI72
(dp862
I304
g860
sI59
(dp863
sI244
(dp864
sI149
g775
ssI308
(dp865
I36
g825
sI218
g802
sI19
g769
sI255
(dp866
sI215
(dp867
ssI54
(dp868
I176
g845
ssI311
(dp869
I23
g786
ssI312
(dp870
I176
g843
sI24
g792
sI228
(dp871
sI365
g750
ssI180
(dp872
I176
g844
sI324
(dp873
sI166
(dp874
sI103
(dp875
ssI59
(dp876
I193
(dp877
sI387
(dp878
sI294
g828
sI72
g863
sI14
g741
sI111
(dp879
sI19
g771
sI342
(dp880
ssI316
(dp881
I200
(dp882
sI169
g839
sI395
g723
sI300
g855
sI215
(dp883
sI248
(dp884
sI346
g726
sI95
(dp885
ssI64
(dp886
I215
(dp887
ssI193
(dp888
I387
(dp889
sI294
g827
sI300
g848
sI336
(dp890
sI209
(dp891
sI59
g877
ssI324
(dp892
I234
(dp893
sI180
g873
sI103
(dp894
ssI69
(dp895
I176
g846
sI24
g793
sI46
g858
sI375
(dp896
ssI32
(dp897
I234
(dp898
sI103
(dp899
sI365
g744
sI14
g732
sI383
(dp900
ssI200
(dp901
I36
g823
sI358
(dp902
sI284
g795
sI14
g735
sI215
(dp903
sI316
g882
ssI375
(dp904
I372
(dp905
sI69
g896
ssI204
(dp906
I169
g837
sI90
(dp907
sI300
g851
sI358
(dp908
ssI372
(dp909
I166
(dp910
sI375
g905
ssI141
(dp911
I289
g816
ssI336
(dp912
I160
g812
sI193
g890
sI354
(dp913
sI131
g702
sI36
g824
sI358
(dp914
sI395
g719
sI14
g737
sI144
g754
sI81
(dp915
sI398
(dp916
sI278
g818
sI218
g800
ssI209
(dp917
I193
g891
sI215
(dp918
ssI156
(dp919
I278
g820
ssI84
(dp920
I81
(dp921
sI275
(dp922
ssI398
(dp923
I336
g916
ssI342
(dp924
I59
g880
sI354
(dp925
sI387
(dp926
sI294
g830
ssI215
(dp927
I64
g887
sI358
(dp928
sI200
g903
sI144
g757
sI209
g918
sI308
g867
sI248
(dp929
sI346
g729
sI316
g883
ssI166
(dp930
I372
g910
sI234
(dp931
sI180
g874
sI103
(dp932
ssI90
(dp933
I204
g907
ssI271
(dp934
I5
g806
sI222
(dp935
ssI222
(dp936
I107
(dp937
sI228
(dp938
sI5
g805
sI271
g935
ssI95
(dp939
I278
g821
sI40
g834
sI169
g840
sI395
g724
sI300
g856
sI19
g773
sI284
g796
sI316
g885
ssI107
(dp940
I222
g937
ssI354
(dp941
I160
g808
sI230
(dp942
sI358
(dp943
sI14
g733
sI336
g913
sI81
(dp944
sI342
g925
ssI228
(dp945
I312
g871
sI24
g788
sI176
g842
sI365
g745
sI222
g938
ssI230
(dp946
I160
g809
sI354
g942
sI358
(dp947
sI300
g849
sI237
(dp948
sI406
g782
ssI358
(dp949
I160
g810
sI354
g943
sI230
g947
sI40
g833
sI300
g850
sI204
g908
sI14
g734
sI111
(dp950
sI336
g914
sI81
(dp951
sI402
g761
sI406
g779
sI215
g928
sI218
g799
sI200
g902
ssI81
(dp952
I160
g813
sI354
g944
sI133
g710
sI358
g951
sI8
g713
sI14
g738
sI336
g915
sI402
g762
sI84
g921
sI218
g801
sI124
(dp953
ssI361
(dp954
I275
(dp955
ssI234
(dp956
I32
g898
sI383
(dp957
sI324
g893
sI166
g931
sI103
(dp958
ssI103
(dp959
I32
g899
sI324
g894
sI166
g932
sI234
g958
sI365
g747
sI180
g875
sI383
(dp960
ssI387
(dp961
I19
g767
sI193
g889
sI59
g878
sI294
g829
sI342
g926
ssI237
(dp962
I275
(dp963
sI406
g781
sI230
g948
ssI111
(dp964
I59
g879
sI358
g950
sI14
g736
ssI241
(dp965
I402
g763
sI124
(dp966
sI378
(dp967
ssI275
(dp968
I361
g955
sI84
g922
sI237
g963
ssI244
(dp969
I304
g861
sI72
g864
sI131
g703
sI149
g777
sI406
g780
ssI118
(dp970
I131
g704
sI300
g852
sI144
g756
sI19
g768
sI278
g819
sI23
g785
sI248
(dp971
ssI41
(dp972
I131
g705
sI255
(dp973
ssI248
(dp974
I131
g706
sI215
g929
sI300
g853
sI144
g758
sI118
g971
sI23
g784
sI316
g884
sI255
(dp975
ssI378
(dp976
I241
g967
sI402
g764
sI124
(dp977
ssI383
(dp978
I32
g900
sI234
g957
sI14
g742
sI103
g960
ssI124
(dp979
I241
g966
sI402
g765
sI378
g977
sI81
g953
ssI255
(dp980
I160
g814
sI131
g707
sI40
g832
sI169
g838
sI300
g854
sI308
g866
sI41
g973
sI248
g975
sssg143
(dp981
sg145
g35
sg146
g694
sbag1
(g2
g3
Ntp982
Rp983
(dp984
g7
(dp985
I0
(dp986
sI5
(dp987
sI8
(dp988
sI10
(dp989
sI14
(dp990
sI15
(dp991
sI19
(dp992
sI24
(dp993
sI32
(dp994
sI36
(dp995
sI41
(dp996
sI46
(dp997
sI50
(dp998
sI60
(dp999
sI64
(dp1000
sI69
(dp1001
sI76
(dp1002
sI80
(dp1003
sI81
(dp1004
sI85
(dp1005
sI91
(dp1006
sI95
(dp1007
sI99
(dp1008
sI103
(dp1009
sI107
(dp1010
sI112
(dp1011
sI115
(dp1012
sI118
(dp1013
sI124
(dp1014
sI131
(dp1015
sI133
(dp1016
sI136
(dp1017
sI137
(dp1018
sI141
(dp1019
sI144
(dp1020
sI160
(dp1021
sI166
(dp1022
sI169
(dp1023
sI176
(dp1024
sI180
(dp1025
sI194
(dp1026
sI200
(dp1027
sI205
(dp1028
sI210
(dp1029
sI215
(dp1030
sI218
(dp1031
sI222
(dp1032
sI228
(dp1033
sI230
(dp1034
sI234
(dp1035
sI237
(dp1036
sI241
(dp1037
sI245
(dp1038
sI248
(dp1039
sI251
(dp1040
sI255
(dp1041
sI259
(dp1042
sI263
(dp1043
sI266
(dp1044
sI271
(dp1045
sI275
(dp1046
sI284
(dp1047
sI285
(dp1048
sI289
(dp1049
sI295
(dp1050
sI300
(dp1051
sI308
(dp1052
sI312
(dp1053
sI316
(dp1054
sI324
(dp1055
sI329
(dp1056
sI336
(dp1057
sI337
(dp1058
sI343
(dp1059
sI346
(dp1060
sI354
(dp1061
sI355
(dp1062
sI358
(dp1063
sI359
(dp1064
sI361
(dp1065
sI365
(dp1066
sI372
(dp1067
sI375
(dp1068
sI383
(dp1069
sI395
(dp1070
sI399
(dp1071
sI402
(dp1072
sI406
(dp1073
ssg34
g35
sg36
g35
sg37
(dp1074
I0
(dp1075
I81
(dp1076
sI275
(dp1077
ssI5
(dp1078
I228
(dp1079
sI166
(dp1080
sI103
(dp1081
sI324
(dp1082
sI365
(dp1083
sI271
(dp1084
sI176
(dp1085
sI372
(dp1086
sI24
(dp1087
sI180
(dp1088
sI222
(dp1089
ssI8
(dp1090
I81
(dp1091
sI133
(dp1092
ssI10
(dp1093
I81
(dp1094
ssI14
(dp1095
I32
(dp1096
sI160
(dp1097
sI354
(dp1098
sI131
(dp1099
sI358
(dp1100
sI136
(dp1101
sI336
(dp1102
ssI15
(dp1103
I115
(dp1104
ssI19
(dp1105
I336
(dp1106
sI358
(dp1107
sI271
(dp1108
sI144
(dp1109
sI402
(dp1110
sI118
(dp1111
sI124
(dp1112
ssI24
(dp1113
I5
g1087
sI103
(dp1114
sI234
(dp1115
sI107
(dp1116
sI365
(dp1117
sI222
(dp1118
ssI32
(dp1119
I289
(dp1120
sI228
(dp1121
sI69
(dp1122
sI166
(dp1123
sI103
(dp1124
sI234
(dp1125
sI395
(dp1126
sI14
g1096
sI271
(dp1127
sI176
(dp1128
sI180
(dp1129
sI46
(dp1130
sI375
(dp1131
sI312
(dp1132
sI324
(dp1133
sI124
(dp1134
sI222
(dp1135
sI383
(dp1136
ssI36
(dp1137
I218
(dp1138
sI308
(dp1139
ssI41
(dp1140
I131
(dp1141
sI255
(dp1142
ssI46
(dp1143
I32
g1130
sI228
(dp1144
sI69
(dp1145
sI103
(dp1146
sI176
(dp1147
sI180
(dp1148
sI312
(dp1149
sI324
(dp1150
sI383
(dp1151
ssI50
(dp1152
I259
(dp1153
sI295
(dp1154
sI91
(dp1155
sI137
(dp1156
sI359
(dp1157
sI76
(dp1158
sI205
(dp1159
sI112
(dp1160
sI115
(dp1161
sI210
(dp1162
sI355
(dp1163
sI251
(dp1164
sI285
(dp1165
ssI60
(dp1166
I194
(dp1167
sI166
(dp1168
sI137
(dp1169
sI245
(dp1170
sI118
(dp1171
sI343
(dp1172
sI285
(dp1173
ssI64
(dp1174
I76
(dp1175
sI251
(dp1176
sI324
(dp1177
sI95
(dp1178
ssI69
(dp1179
I32
g1122
sI324
(dp1180
sI166
(dp1181
sI358
(dp1182
sI103
(dp1183
sI46
g1145
sI271
(dp1184
sI180
(dp1185
sI312
(dp1186
sI372
(dp1187
ssI76
(dp1188
I64
g1175
sI289
(dp1189
sI263
(dp1190
sI137
(dp1191
sI80
(dp1192
sI337
(dp1193
sI50
g1158
sI251
(dp1194
ssI80
(dp1195
I251
(dp1196
sI76
g1192
sI245
(dp1197
sI118
(dp1198
sI263
(dp1199
ssI81
(dp1200
I8
g1091
sI0
g1076
sI10
g1094
sI275
(dp1201
sI133
(dp1202
ssI85
(dp1203
I399
(dp1204
ssI91
(dp1205
I194
(dp1206
sI259
(dp1207
sI210
(dp1208
sI112
(dp1209
sI337
(dp1210
sI50
g1155
sI115
(dp1211
sI343
(dp1212
sI285
(dp1213
ssI95
(dp1214
I64
g1178
sI395
(dp1215
sI316
(dp1216
ssI99
(dp1217
I210
(dp1218
sI115
(dp1219
sI205
(dp1220
sI343
(dp1221
ssI103
(dp1222
I32
g1124
sI228
(dp1223
sI5
g1081
sI166
(dp1224
sI372
(dp1225
sI169
(dp1226
sI234
(dp1227
sI300
(dp1228
sI46
g1146
sI271
(dp1229
sI176
(dp1230
sI24
g1114
sI180
(dp1231
sI375
(dp1232
sI312
(dp1233
sI324
(dp1234
sI285
(dp1235
sI69
g1183
sI383
(dp1236
ssI107
(dp1237
I24
g1116
sI222
(dp1238
sI166
(dp1239
ssI112
(dp1240
I194
(dp1241
sI259
(dp1242
sI137
(dp1243
sI205
(dp1244
sI337
(dp1245
sI50
g1160
sI115
(dp1246
sI343
(dp1247
sI91
g1209
sI285
(dp1248
ssI115
(dp1249
I99
g1219
sI359
(dp1250
sI205
(dp1251
sI15
g1104
sI112
g1246
sI50
g1161
sI355
(dp1252
sI343
(dp1253
sI91
g1211
ssI118
(dp1254
I80
g1198
sI144
(dp1255
sI402
(dp1256
sI19
g1111
sI343
(dp1257
sI248
(dp1258
sI60
g1171
ssI124
(dp1259
I32
g1134
sI169
(dp1260
sI300
(dp1261
sI241
(dp1262
sI402
(dp1263
sI19
g1112
sI180
(dp1264
sI248
(dp1265
ssI131
(dp1266
I41
g1141
sI300
(dp1267
sI14
g1099
sI402
(dp1268
sI169
(dp1269
sI255
(dp1270
ssI133
(dp1271
I8
g1092
sI81
g1202
ssI136
(dp1272
I160
(dp1273
sI354
(dp1274
sI358
(dp1275
sI395
(dp1276
sI300
(dp1277
sI14
g1101
ssI137
(dp1278
I194
(dp1279
sI259
(dp1280
sI329
(dp1281
sI76
g1191
sI112
g1243
sI337
(dp1282
sI50
g1156
sI343
(dp1283
sI60
g1169
sI285
(dp1284
ssI141
(dp1285
I248
(dp1286
sI289
(dp1287
sI354
(dp1288
sI346
(dp1289
sI312
(dp1290
ssI144
(dp1291
I358
(dp1292
sI336
(dp1293
sI19
g1109
sI118
g1255
sI343
(dp1294
sI248
(dp1295
sI284
(dp1296
ssI160
(dp1297
I336
(dp1298
sI136
g1273
sI14
g1097
sI255
(dp1299
ssI166
(dp1300
I32
g1123
sI375
(dp1301
sI228
(dp1302
sI5
g1080
sI103
g1224
sI234
(dp1303
sI107
g1239
sI365
(dp1304
sI176
(dp1305
sI402
(dp1306
sI180
(dp1307
sI69
g1181
sI312
(dp1308
sI372
(dp1309
sI60
g1168
sI222
(dp1310
sI383
(dp1311
ssI169
(dp1312
I124
g1260
sI131
g1269
sI180
(dp1313
sI300
(dp1314
sI103
g1226
ssI176
(dp1315
I32
g1128
sI324
(dp1316
sI5
g1085
sI166
g1305
sI103
g1230
sI234
(dp1317
sI46
g1147
sI180
(dp1318
sI375
(dp1319
sI312
(dp1320
ssI180
(dp1321
I32
g1129
sI228
(dp1322
sI358
(dp1323
sI166
g1307
sI103
g1231
sI169
g1313
sI234
(dp1324
sI300
(dp1325
sI365
(dp1326
sI46
g1148
sI176
g1318
sI248
(dp1327
sI124
g1264
sI312
(dp1328
sI5
g1088
sI69
g1185
sI383
(dp1329
ssI194
(dp1330
I295
(dp1331
sI200
(dp1332
sI137
g1279
sI112
g1241
sI337
(dp1333
sI343
(dp1334
sI91
g1206
sI60
g1167
sI285
(dp1335
ssI200
(dp1336
I194
g1332
sI266
(dp1337
sI205
(dp1338
sI245
(dp1339
sI215
(dp1340
ssI205
(dp1341
I99
g1220
sI200
g1338
sI215
(dp1342
sI402
(dp1343
sI112
g1244
sI337
(dp1344
sI50
g1159
sI115
g1251
sI343
(dp1345
ssI210
(dp1346
I99
g1218
sI359
(dp1347
sI329
(dp1348
sI295
(dp1349
sI337
(dp1350
sI50
g1162
sI259
(dp1351
sI91
g1208
ssI215
(dp1352
I230
(dp1353
sI200
g1340
sI266
(dp1354
sI205
g1342
sI245
(dp1355
sI406
(dp1356
ssI218
(dp1357
I36
g1138
sI308
(dp1358
ssI222
(dp1359
I32
g1135
sI395
(dp1360
sI324
(dp1361
sI5
g1089
sI166
g1310
sI234
(dp1362
sI107
g1238
sI365
(dp1363
sI271
(dp1364
sI372
(dp1365
sI375
(dp1366
sI24
g1118
ssI228
(dp1367
I32
g1121
sI324
(dp1368
sI5
g1079
sI166
g1302
sI103
g1223
sI46
g1144
sI271
(dp1369
sI248
(dp1370
sI180
g1322
sI312
(dp1371
sI383
(dp1372
ssI230
(dp1373
I237
(dp1374
sI406
(dp1375
sI215
g1353
ssI234
(dp1376
I32
g1125
sI324
(dp1377
sI166
g1303
sI103
g1227
sI365
(dp1378
sI176
g1317
sI24
g1115
sI180
g1324
sI312
(dp1379
sI372
(dp1380
sI222
g1362
sI383
(dp1381
ssI237
(dp1382
I406
(dp1383
sI230
g1374
ssI241
(dp1384
I402
(dp1385
sI124
g1262
sI358
(dp1386
ssI245
(dp1387
I200
g1339
sI329
(dp1388
sI80
g1197
sI372
(dp1389
sI215
g1355
sI60
g1170
sI285
(dp1390
ssI248
(dp1391
I289
(dp1392
sI228
g1370
sI358
(dp1393
sI300
(dp1394
sI141
g1286
sI144
g1295
sI402
(dp1395
sI180
g1327
sI118
g1258
sI124
g1265
ssI251
(dp1396
I64
g1176
sI263
(dp1397
sI76
g1194
sI80
g1196
sI337
(dp1398
sI50
g1164
ssI255
(dp1399
I160
g1299
sI41
g1142
sI131
g1270
sI300
(dp1400
ssI259
(dp1401
I137
g1280
sI210
g1351
sI112
g1242
sI337
(dp1402
sI50
g1153
sI91
g1207
sI285
(dp1403
ssI263
(dp1404
I80
g1199
sI251
g1397
sI76
g1190
ssI266
(dp1405
I200
g1337
sI215
g1354
ssI271
(dp1406
I32
g1127
sI324
(dp1407
sI5
g1084
sI103
g1229
sI329
(dp1408
sI19
g1108
sI372
(dp1409
sI312
(dp1410
sI228
g1369
sI222
g1364
sI69
g1184
ssI275
(dp1411
I0
g1077
sI361
(dp1412
sI81
g1201
ssI284
(dp1413
I144
g1296
sI375
(dp1414
ssI285
(dp1415
I194
g1335
sI259
g1403
sI359
(dp1416
sI137
g1284
sI103
g1235
sI112
g1248
sI337
(dp1417
sI50
g1165
sI245
g1390
sI91
g1213
sI60
g1173
ssI289
(dp1418
I32
g1120
sI76
g1189
sI141
g1287
sI312
(dp1419
sI248
g1392
sI346
(dp1420
ssI295
(dp1421
I210
g1349
sI337
(dp1422
sI194
g1331
sI50
g1154
sI343
(dp1423
ssI300
(dp1424
I131
g1267
sI358
(dp1425
sI103
g1228
sI136
g1277
sI124
g1261
sI248
g1394
sI180
g1325
sI169
g1314
sI312
(dp1426
sI316
(dp1427
sI255
g1400
ssI308
(dp1428
I218
g1358
sI36
g1139
ssI312
(dp1429
I32
g1132
sI289
g1419
sI228
g1371
sI69
g1186
sI166
g1308
sI103
g1233
sI329
(dp1430
sI234
g1379
sI395
(dp1431
sI300
g1426
sI141
g1290
sI46
g1149
sI271
g1410
sI176
g1320
sI180
g1328
sI406
(dp1432
sI324
(dp1433
sI316
(dp1434
sI383
(dp1435
ssI316
(dp1436
I312
g1434
sI346
(dp1437
sI300
g1427
sI95
g1216
ssI324
(dp1438
I32
g1133
sI64
g1177
sI228
g1368
sI69
g1180
sI103
g1234
sI234
g1377
sI46
g1150
sI271
g1407
sI176
g1316
sI402
(dp1439
sI372
(dp1440
sI312
g1433
sI222
g1361
sI5
g1082
ssI329
(dp1441
I137
g1281
sI402
(dp1442
sI271
g1408
sI210
g1348
sI245
g1388
sI312
g1430
ssI336
(dp1443
I160
g1298
sI354
(dp1444
sI14
g1102
sI144
g1293
sI402
(dp1445
sI19
g1106
ssI337
(dp1446
I194
g1333
sI251
g1398
sI295
g1422
sI137
g1282
sI76
g1193
sI205
g1344
sI112
g1245
sI210
g1350
sI259
g1402
sI343
(dp1447
sI91
g1210
sI285
g1417
ssI343
(dp1448
I112
g1247
sI194
g1334
sI355
(dp1449
sI295
g1423
sI137
g1283
sI359
(dp1450
sI205
g1345
sI99
g1221
sI144
g1294
sI337
g1447
sI115
g1253
sI118
g1257
sI91
g1212
sI60
g1172
ssI346
(dp1451
I289
g1420
sI395
(dp1452
sI316
g1437
sI141
g1289
ssI354
(dp1453
I336
g1444
sI136
g1274
sI14
g1098
sI141
g1288
sI358
(dp1454
ssI355
(dp1455
I343
g1449
sI50
g1163
sI115
g1252
sI359
(dp1456
ssI358
(dp1457
I354
g1454
sI69
g1182
sI136
g1275
sI395
(dp1458
sI300
g1425
sI14
g1100
sI144
g1292
sI241
g1386
sI402
(dp1459
sI19
g1107
sI180
g1323
sI248
g1393
ssI359
(dp1460
I355
g1456
sI50
g1157
sI210
g1347
sI115
g1250
sI343
g1450
sI285
g1416
ssI361
(dp1461
I275
g1412
ssI365
(dp1462
I5
g1083
sI166
g1304
sI234
g1378
sI180
g1326
sI24
g1117
sI222
g1363
ssI372
(dp1463
I324
g1440
sI5
g1086
sI166
g1309
sI103
g1225
sI234
g1380
sI271
g1409
sI245
g1389
sI69
g1187
sI222
g1365
sI383
(dp1464
ssI375
(dp1465
I32
g1131
sI166
g1301
sI103
g1232
sI176
g1319
sI284
g1414
sI222
g1366
ssI383
(dp1466
I32
g1136
sI228
g1372
sI166
g1311
sI103
g1236
sI234
g1381
sI46
g1151
sI402
(dp1467
sI180
g1329
sI312
g1435
sI372
g1464
ssI395
(dp1468
I32
g1126
sI358
g1458
sI136
g1276
sI312
g1431
sI346
g1452
sI222
g1360
sI95
g1215
ssI399
(dp1469
I85
g1204
ssI402
(dp1470
I131
g1268
sI324
g1439
sI166
g1306
sI358
g1459
sI329
g1442
sI205
g1343
sI336
g1445
sI241
g1385
sI19
g1110
sI118
g1256
sI248
g1395
sI124
g1263
sI383
g1467
ssI406
(dp1471
I312
g1432
sI237
g1383
sI230
g1375
sI215
g1356
sssg143
(dp1472
sg145
g35
sg146
g1074
sbag1
(g2
g3
Ntp1473
Rp1474
(dp1475
g7
(dp1476
I1
(dp1477
sI5
(dp1478
sI20
(dp1479
sI24
(dp1480
sI27
(dp1481
sI32
(dp1482
sI36
(dp1483
sI42
(dp1484
sI46
(dp1485
sI50
(dp1486
sI56
(dp1487
sI60
(dp1488
sI65
(dp1489
sI69
(dp1490
sI73
(dp1491
sI76
(dp1492
sI80
(dp1493
sI85
(dp1494
sI89
(dp1495
sI91
(dp1496
sI96
(dp1497
sI99
(dp1498
sI103
(dp1499
sI107
(dp1500
sI112
(dp1501
sI115
(dp1502
sI124
(dp1503
sI132
(dp1504
sI137
(dp1505
sI141
(dp1506
sI145
(dp1507
sI150
(dp1508
sI157
(dp1509
sI161
(dp1510
sI166
(dp1511
sI170
(dp1512
sI176
(dp1513
sI180
(dp1514
sI187
(dp1515
sI189
(dp1516
sI194
(dp1517
sI200
(dp1518
sI205
(dp1519
sI210
(dp1520
sI215
(dp1521
sI218
(dp1522
sI222
(dp1523
sI228
(dp1524
sI230
(dp1525
sI234
(dp1526
sI237
(dp1527
sI241
(dp1528
sI246
(dp1529
sI251
(dp1530
sI256
(dp1531
sI259
(dp1532
sI263
(dp1533
sI271
(dp1534
sI279
(dp1535
sI285
(dp1536
sI289
(dp1537
sI295
(dp1538
sI301
(dp1539
sI305
(dp1540
sI308
(dp1541
sI312
(dp1542
sI317
(dp1543
sI324
(dp1544
sI329
(dp1545
sI330
(dp1546
sI333
(dp1547
sI337
(dp1548
sI343
(dp1549
sI347
(dp1550
sI350
(dp1551
sI355
(dp1552
sI359
(dp1553
sI365
(dp1554
sI372
(dp1555
sI375
(dp1556
sI378
(dp1557
sI383
(dp1558
sI388
(dp1559
sI392
(dp1560
sI396
(dp1561
sI399
(dp1562
sI402
(dp1563
sI406
(dp1564
ssg34
g35
sg36
g35
sg37
(dp1565
I1
(dp1566
I96
(dp1567
sI161
(dp1568
sI132
(dp1569
sI65
(dp1570
sI73
(dp1571
sI170
(dp1572
sI396
(dp1573
sI301
(dp1574
sI305
(dp1575
sI279
(dp1576
sI56
(dp1577
sI157
(dp1578
ssI5
(dp1579
I324
(dp1580
sI166
(dp1581
sI295
(dp1582
sI234
(dp1583
sI180
(dp1584
sI372
(dp1585
sI383
(dp1586
ssI20
(dp1587
I145
(dp1588
ssI24
(dp1589
I312
(dp1590
sI271
(dp1591
sI166
(dp1592
sI46
(dp1593
sI375
(dp1594
ssI27
(dp1595
I256
(dp1596
sI289
(dp1597
sI200
(dp1598
sI330
(dp1599
sI333
(dp1600
sI399
(dp1601
sI392
(dp1602
sI210
(dp1603
sI215
(dp1604
sI89
(dp1605
sI187
(dp1606
sI124
(dp1607
sI350
(dp1608
ssI32
(dp1609
I256
(dp1610
sI80
(dp1611
sI166
(dp1612
sI263
(dp1613
sI76
(dp1614
sI176
(dp1615
sI402
(dp1616
sI180
(dp1617
sI343
(dp1618
sI312
(dp1619
sI124
(dp1620
sI383
(dp1621
ssI36
(dp1622
I218
(dp1623
sI308
(dp1624
ssI42
(dp1625
I337
(dp1626
ssI46
(dp1627
I228
(dp1628
sI69
(dp1629
sI166
(dp1630
sI312
(dp1631
sI180
(dp1632
sI24
g1593
sI251
(dp1633
sI222
(dp1634
sI383
(dp1635
ssI50
(dp1636
I295
(dp1637
sI194
(dp1638
sI259
(dp1639
sI132
(dp1640
sI359
(dp1641
sI137
(dp1642
sI343
(dp1643
sI112
(dp1644
sI337
(dp1645
sI210
(dp1646
sI115
(dp1647
sI375
(dp1648
sI355
(dp1649
sI91
(dp1650
sI285
(dp1651
ssI56
(dp1652
I96
(dp1653
sI161
(dp1654
sI132
(dp1655
sI65
(dp1656
sI1
g1577
sI73
(dp1657
sI396
(dp1658
sI305
(dp1659
sI157
(dp1660
ssI60
(dp1661
I194
(dp1662
sI259
(dp1663
sI295
(dp1664
sI392
(dp1665
sI137
(dp1666
sI205
(dp1667
sI112
(dp1668
sI337
(dp1669
sI99
(dp1670
sI343
(dp1671
sI91
(dp1672
sI285
(dp1673
ssI65
(dp1674
I96
(dp1675
sI1
g1570
sI132
(dp1676
sI161
(dp1677
sI73
(dp1678
sI396
(dp1679
sI301
(dp1680
sI305
(dp1681
sI279
(dp1682
sI56
g1656
sI388
(dp1683
sI157
(dp1684
ssI69
(dp1685
I205
(dp1686
sI324
(dp1687
sI365
(dp1688
sI46
g1629
sI383
(dp1689
ssI73
(dp1690
I96
(dp1691
sI1
g1571
sI132
(dp1692
sI65
g1678
sI161
(dp1693
sI157
(dp1694
sI56
g1657
sI347
(dp1695
sI317
(dp1696
ssI76
(dp1697
I32
g1614
sI91
(dp1698
sI263
(dp1699
sI107
(dp1700
sI80
(dp1701
sI343
(dp1702
sI89
(dp1703
sI251
(dp1704
sI383
(dp1705
ssI80
(dp1706
I32
g1611
sI392
(dp1707
sI251
(dp1708
sI76
g1701
ssI85
(dp1709
I187
(dp1710
sI246
(dp1711
sI399
(dp1712
ssI89
(dp1713
I289
(dp1714
sI324
(dp1715
sI295
(dp1716
sI392
(dp1717
sI76
g1703
sI333
(dp1718
sI141
(dp1719
sI337
(dp1720
sI210
(dp1721
sI246
(dp1722
sI27
g1605
sI189
(dp1723
sI350
(dp1724
ssI91
(dp1725
I194
(dp1726
sI259
(dp1727
sI137
(dp1728
sI76
g1698
sI112
(dp1729
sI337
(dp1730
sI50
g1650
sI99
(dp1731
sI343
(dp1732
sI60
g1672
sI285
(dp1733
ssI96
(dp1734
I1
g1567
sI388
(dp1735
sI65
g1675
sI161
(dp1736
sI73
g1691
sI396
(dp1737
sI305
(dp1738
sI279
(dp1739
sI56
g1653
ssI99
(dp1740
I194
(dp1741
sI137
(dp1742
sI205
(dp1743
sI337
(dp1744
sI343
(dp1745
sI312
(dp1746
sI91
g1731
sI60
g1670
sI285
(dp1747
ssI103
(dp1748
I355
(dp1749
sI222
(dp1750
ssI107
(dp1751
I312
(dp1752
sI76
g1700
sI375
(dp1753
ssI112
(dp1754
I194
(dp1755
sI259
(dp1756
sI359
(dp1757
sI137
(dp1758
sI295
(dp1759
sI210
(dp1760
sI205
(dp1761
sI337
(dp1762
sI50
g1644
sI355
(dp1763
sI215
(dp1764
sI343
(dp1765
sI91
g1729
sI60
g1668
sI285
(dp1766
ssI115
(dp1767
I359
(dp1768
sI50
g1647
sI355
(dp1769
sI210
(dp1770
sI295
(dp1771
ssI124
(dp1772
I32
g1620
sI402
(dp1773
sI176
(dp1774
sI241
(dp1775
sI210
(dp1776
sI246
(dp1777
sI27
g1607
ssI132
(dp1778
I65
g1676
sI1
g1569
sI161
(dp1779
sI73
g1692
sI170
(dp1780
sI396
(dp1781
sI301
(dp1782
sI317
(dp1783
sI50
g1640
sI150
(dp1784
sI279
(dp1785
sI56
g1655
sI157
(dp1786
ssI137
(dp1787
I194
(dp1788
sI259
(dp1789
sI295
(dp1790
sI392
(dp1791
sI205
(dp1792
sI112
g1758
sI50
g1642
sI210
(dp1793
sI99
g1742
sI246
(dp1794
sI343
(dp1795
sI91
g1728
sI60
g1666
sI285
(dp1796
ssI141
(dp1797
I289
(dp1798
sI350
(dp1799
sI89
g1719
ssI145
(dp1800
I20
g1588
ssI150
(dp1801
I388
(dp1802
sI396
(dp1803
sI301
(dp1804
sI305
(dp1805
sI279
(dp1806
sI132
g1784
sI317
(dp1807
ssI157
(dp1808
I1
g1578
sI388
(dp1809
sI65
g1684
sI161
(dp1810
sI73
g1694
sI305
(dp1811
sI279
(dp1812
sI56
g1660
sI132
g1786
ssI161
(dp1813
I96
g1736
sI1
g1568
sI132
g1779
sI65
g1677
sI73
g1693
sI396
(dp1814
sI301
(dp1815
sI317
(dp1816
sI305
(dp1817
sI279
(dp1818
sI56
g1654
sI388
(dp1819
sI347
(dp1820
sI157
g1810
ssI166
(dp1821
I32
g1612
sI324
(dp1822
sI5
g1581
sI295
(dp1823
sI234
(dp1824
sI375
(dp1825
sI46
g1630
sI271
(dp1826
sI176
(dp1827
sI241
(dp1828
sI180
(dp1829
sI343
(dp1830
sI24
g1592
sI228
(dp1831
sI378
(dp1832
sI251
(dp1833
sI222
(dp1834
ssI170
(dp1835
I1
g1572
sI347
(dp1836
sI132
g1780
sI301
(dp1837
sI279
(dp1838
ssI176
(dp1839
I32
g1615
sI259
(dp1840
sI166
g1827
sI343
(dp1841
sI365
(dp1842
sI241
(dp1843
sI375
(dp1844
sI124
g1774
sI285
(dp1845
sI383
(dp1846
ssI180
(dp1847
I32
g1617
sI256
(dp1848
sI228
(dp1849
sI5
g1584
sI166
g1829
sI234
(dp1850
sI46
g1632
sI271
(dp1851
sI343
(dp1852
sI251
(dp1853
sI222
(dp1854
ssI187
(dp1855
I337
(dp1856
sI27
g1606
sI85
g1710
sI350
(dp1857
ssI189
(dp1858
I392
(dp1859
sI89
g1723
sI234
(dp1860
sI210
(dp1861
sI333
(dp1862
ssI194
(dp1863
I355
(dp1864
sI359
(dp1865
sI137
g1788
sI365
(dp1866
sI205
(dp1867
sI112
g1755
sI337
(dp1868
sI50
g1638
sI259
(dp1869
sI99
g1741
sI343
(dp1870
sI91
g1726
sI60
g1662
ssI200
(dp1871
I295
(dp1872
sI330
(dp1873
sI27
g1598
sI246
(dp1874
sI215
(dp1875
ssI205
(dp1876
I194
g1867
sI99
g1743
sI69
g1686
sI137
g1792
sI112
g1761
sI337
(dp1877
sI402
(dp1878
sI259
(dp1879
sI343
(dp1880
sI312
(dp1881
sI251
(dp1882
sI60
g1667
sI285
(dp1883
sI222
(dp1884
ssI210
(dp1885
I355
(dp1886
sI295
(dp1887
sI259
(dp1888
sI137
g1793
sI285
(dp1889
sI112
g1760
sI50
g1646
sI115
g1770
sI89
g1721
sI27
g1603
sI124
g1776
sI189
g1861
ssI215
(dp1890
I259
(dp1891
sI200
g1875
sI330
(dp1892
sI112
g1764
sI246
(dp1893
sI312
(dp1894
sI27
g1604
sI350
(dp1895
ssI218
(dp1896
I36
g1623
ssI222
(dp1897
I228
(dp1898
sI166
g1834
sI103
g1750
sI375
(dp1899
sI205
g1884
sI46
g1634
sI337
(dp1900
sI180
g1854
sI343
(dp1901
sI312
(dp1902
sI383
(dp1903
ssI228
(dp1904
I166
g1831
sI234
(dp1905
sI46
g1628
sI271
(dp1906
sI180
g1849
sI375
(dp1907
sI312
(dp1908
sI222
g1898
ssI230
(dp1909
I237
(dp1910
sI406
(dp1911
ssI234
(dp1912
I324
(dp1913
sI5
g1583
sI166
g1824
sI372
(dp1914
sI271
(dp1915
sI180
g1850
sI343
(dp1916
sI228
g1905
sI189
g1860
ssI237
(dp1917
I230
g1910
sI406
(dp1918
ssI241
(dp1919
I176
g1843
sI402
(dp1920
sI124
g1775
sI166
g1828
ssI246
(dp1921
I256
(dp1922
sI289
(dp1923
sI259
(dp1924
sI200
g1874
sI137
g1794
sI330
(dp1925
sI215
g1893
sI399
(dp1926
sI392
(dp1927
sI85
g1711
sI343
(dp1928
sI89
g1722
sI124
g1777
sI350
(dp1929
ssI251
(dp1930
I166
g1833
sI263
(dp1931
sI76
g1704
sI205
g1882
sI46
g1633
sI80
g1708
sI180
g1853
sI343
(dp1932
ssI256
(dp1933
I32
g1610
sI392
(dp1934
sI180
g1848
sI246
g1922
sI279
(dp1935
sI27
g1596
ssI259
(dp1936
I176
g1840
sI194
g1869
sI295
(dp1937
sI392
(dp1938
sI137
g1789
sI343
(dp1939
sI210
g1888
sI205
g1879
sI112
g1756
sI337
(dp1940
sI50
g1639
sI246
g1924
sI215
g1891
sI91
g1727
sI60
g1663
sI285
(dp1941
ssI263
(dp1942
I32
g1613
sI392
(dp1943
sI251
g1931
sI76
g1699
ssI271
(dp1944
I180
g1851
sI324
(dp1945
sI166
g1826
sI234
g1915
sI312
(dp1946
sI372
(dp1947
sI24
g1591
sI228
g1906
ssI279
(dp1948
I96
g1739
sI1
g1576
sI388
(dp1949
sI65
g1682
sI161
g1818
sI170
g1838
sI301
(dp1950
sI256
g1935
sI317
(dp1951
sI305
(dp1952
sI150
g1806
sI132
g1785
sI347
(dp1953
sI157
g1812
ssI285
(dp1954
I176
g1845
sI259
g1941
sI295
(dp1955
sI210
g1889
sI137
g1796
sI205
g1883
sI112
g1766
sI337
(dp1956
sI402
(dp1957
sI99
g1747
sI50
g1651
sI343
(dp1958
sI91
g1733
sI60
g1673
ssI289
(dp1959
I89
g1714
sI27
g1597
sI141
g1798
sI246
g1923
ssI295
(dp1960
I355
(dp1961
sI388
(dp1962
sI5
g1582
sI166
g1823
sI259
g1937
sI137
g1790
sI200
g1872
sI210
g1887
sI112
g1759
sI337
(dp1963
sI50
g1637
sI115
g1771
sI343
(dp1964
sI89
g1716
sI60
g1664
sI285
g1955
ssI301
(dp1965
I161
g1815
sI388
(dp1966
sI65
g1680
sI170
g1837
sI396
(dp1967
sI1
g1574
sI150
g1804
sI279
g1950
sI132
g1782
ssI305
(dp1968
I96
g1738
sI65
g1681
sI388
(dp1969
sI1
g1575
sI161
g1817
sI157
g1811
sI150
g1805
sI279
g1952
sI56
g1659
sI317
(dp1970
ssI308
(dp1971
I36
g1624
ssI312
(dp1972
I32
g1619
sI99
g1746
sI228
g1908
sI107
g1752
sI205
g1881
sI46
g1631
sI365
(dp1973
sI375
(dp1974
sI337
(dp1975
sI215
g1894
sI343
(dp1976
sI24
g1590
sI324
(dp1977
sI271
g1946
sI222
g1902
ssI317
(dp1978
I161
g1816
sI388
(dp1979
sI73
g1696
sI305
g1970
sI150
g1807
sI279
g1951
sI132
g1783
sI347
(dp1980
ssI324
(dp1981
I355
(dp1982
sI69
g1687
sI166
g1822
sI234
g1913
sI271
g1945
sI372
(dp1983
sI312
g1977
sI89
g1715
sI5
g1580
sI383
(dp1984
ssI329
(dp1985
I399
(dp1986
ssI330
(dp1987
I200
g1873
sI392
(dp1988
sI27
g1599
sI246
g1925
sI215
g1892
ssI333
(dp1989
I89
g1718
sI27
g1600
sI189
g1862
sI350
(dp1990
ssI337
(dp1991
I194
g1868
sI259
g1940
sI295
g1963
sI42
g1626
sI205
g1877
sI112
g1762
sI50
g1645
sI99
g1744
sI350
(dp1992
sI187
g1856
sI312
g1975
sI89
g1720
sI91
g1730
sI60
g1669
sI285
g1956
sI222
g1900
ssI343
(dp1993
I259
g1939
sI137
g1795
sI285
g1958
sI32
g1618
sI166
g1830
sI295
g1964
sI176
g1841
sI50
g1643
sI180
g1852
sI312
g1976
sI60
g1671
sI194
g1870
sI76
g1702
sI205
g1880
sI91
g1732
sI222
g1901
sI99
g1745
sI234
g1916
sI112
g1765
sI246
g1928
sI375
(dp1994
sI251
g1932
ssI347
(dp1995
I161
g1820
sI73
g1695
sI170
g1836
sI396
(dp1996
sI279
g1953
sI317
g1980
ssI350
(dp1997
I187
g1857
sI333
g1990
sI141
g1799
sI337
g1992
sI246
g1929
sI215
g1895
sI89
g1724
sI27
g1608
ssI355
(dp1998
I295
g1961
sI194
g1864
sI324
g1982
sI359
(dp1999
sI103
g1749
sI210
g1886
sI112
g1763
sI50
g1649
sI115
g1769
ssI359
(dp2000
I194
g1865
sI355
g1999
sI402
(dp2001
sI112
g1757
sI50
g1641
sI115
g1768
ssI365
(dp2002
I194
g1866
sI69
g1688
sI176
g1842
sI372
(dp2003
sI312
g1973
sI383
(dp2004
ssI372
(dp2005
I324
g1983
sI5
g1585
sI234
g1914
sI365
g2003
sI271
g1947
sI375
(dp2006
sI383
(dp2007
ssI375
(dp2008
I228
g1907
sI166
g1825
sI107
g1753
sI176
g1844
sI24
g1594
sI50
g1648
sI372
g2006
sI343
g1994
sI312
g1974
sI222
g1899
sI383
(dp2009
ssI378
(dp2010
I166
g1832
ssI383
(dp2011
I32
g1621
sI324
g1984
sI69
g1689
sI392
(dp2012
sI76
g1705
sI365
g2004
sI46
g1635
sI176
g1846
sI372
g2007
sI375
g2009
sI222
g1903
sI5
g1586
ssI388
(dp2013
I96
g1735
sI161
g1819
sI65
g1683
sI295
g1962
sI301
g1966
sI317
g1979
sI305
g1969
sI150
g1802
sI279
g1949
sI157
g1809
ssI392
(dp2014
I256
g1934
sI259
g1938
sI406
(dp2015
sI263
g1943
sI137
g1791
sI330
g1988
sI399
(dp2016
sI80
g1707
sI246
g1927
sI89
g1717
sI27
g1602
sI60
g1665
sI189
g1859
sI383
g2012
ssI396
(dp2017
I96
g1737
sI1
g1573
sI132
g1781
sI65
g1679
sI161
g1814
sI301
g1967
sI150
g1803
sI56
g1658
sI347
g1996
ssI399
(dp2018
I392
g2016
sI329
g1986
sI27
g1601
sI85
g1712
sI246
g1926
ssI402
(dp2019
I32
g1616
sI359
g2001
sI205
g1878
sI241
g1920
sI124
g1773
sI285
g1957
ssI406
(dp2020
I392
g2015
sI237
g1918
sI230
g1911
sssg143
(dp2021
sg145
g35
sg146
g1565
sbag1
(g2
g3
Ntp2022
Rp2023
(dp2024
g7
(dp2025
I1
(dp2026
sI11
(dp2027
sI20
(dp2028
sI25
(dp2029
sI27
(dp2030
sI33
(dp2031
sI36
(dp2032
sI42
(dp2033
sI50
(dp2034
sI51
(dp2035
sI55
(dp2036
sI56
(dp2037
sI60
(dp2038
sI61
(dp2039
sI65
(dp2040
sI70
(dp2041
sI73
(dp2042
sI76
(dp2043
sI80
(dp2044
sI82
(dp2045
sI85
(dp2046
sI89
(dp2047
sI91
(dp2048
sI96
(dp2049
sI99
(dp2050
sI108
(dp2051
sI112
(dp2052
sI113
(dp2053
sI115
(dp2054
sI119
(dp2055
sI127
(dp2056
sI132
(dp2057
sI134
(dp2058
sI137
(dp2059
sI141
(dp2060
sI145
(dp2061
sI150
(dp2062
sI157
(dp2063
sI161
(dp2064
sI170
(dp2065
sI187
(dp2066
sI189
(dp2067
sI194
(dp2068
sI200
(dp2069
sI205
(dp2070
sI210
(dp2071
sI215
(dp2072
sI218
(dp2073
sI230
(dp2074
sI235
(dp2075
sI237
(dp2076
sI242
(dp2077
sI246
(dp2078
sI249
(dp2079
sI251
(dp2080
sI259
(dp2081
sI263
(dp2082
sI267
(dp2083
sI276
(dp2084
sI279
(dp2085
sI285
(dp2086
sI289
(dp2087
sI295
(dp2088
sI301
(dp2089
sI305
(dp2090
sI308
(dp2091
sI313
(dp2092
sI317
(dp2093
sI325
(dp2094
sI330
(dp2095
sI333
(dp2096
sI337
(dp2097
sI343
(dp2098
sI347
(dp2099
sI350
(dp2100
sI355
(dp2101
sI356
(dp2102
sI359
(dp2103
sI362
(dp2104
sI366
(dp2105
sI376
(dp2106
sI379
(dp2107
sI384
(dp2108
sI388
(dp2109
sI392
(dp2110
sI396
(dp2111
sI399
(dp2112
sI406
(dp2113
ssg34
g35
sg36
g35
sg37
(dp2114
I1
(dp2115
I96
(dp2116
sI161
(dp2117
sI388
(dp2118
sI150
(dp2119
sI65
(dp2120
sI73
(dp2121
sI396
(dp2122
sI317
(dp2123
sI305
(dp2124
sI406
(dp2125
sI279
(dp2126
sI56
(dp2127
sI347
(dp2128
sI157
(dp2129
ssI11
(dp2130
I36
(dp2131
sI70
(dp2132
sI267
(dp2133
sI76
(dp2134
sI80
(dp2135
sI145
(dp2136
sI115
(dp2137
sI20
(dp2138
sI215
(dp2139
sI89
(dp2140
ssI20
(dp2141
I267
(dp2142
sI406
(dp2143
sI337
(dp2144
sI200
(dp2145
sI330
(dp2146
sI215
(dp2147
sI76
(dp2148
sI205
(dp2149
sI359
(dp2150
sI11
g2138
sI145
(dp2151
sI115
(dp2152
sI246
(dp2153
sI343
(dp2154
sI251
(dp2155
ssI25
(dp2156
I33
(dp2157
sI325
(dp2158
sI134
(dp2159
sI362
(dp2160
sI235
(dp2161
sI108
(dp2162
sI366
(dp2163
sI242
(dp2164
sI276
(dp2165
sI119
(dp2166
sI376
(dp2167
sI313
(dp2168
sI249
(dp2169
sI55
(dp2170
ssI27
(dp2171
I89
(dp2172
sI333
(dp2173
sI350
(dp2174
ssI33
(dp2175
I325
(dp2176
sI134
(dp2177
sI362
(dp2178
sI235
(dp2179
sI108
(dp2180
sI366
(dp2181
sI242
(dp2182
sI276
(dp2183
sI150
(dp2184
sI249
(dp2185
sI313
(dp2186
sI25
g2157
sI119
(dp2187
ssI36
(dp2188
I384
(dp2189
sI11
g2131
sI50
(dp2190
sI115
(dp2191
sI308
(dp2192
sI246
(dp2193
sI218
(dp2194
sI127
(dp2195
ssI42
(dp2196
I113
(dp2197
sI51
(dp2198
sI356
(dp2199
sI61
(dp2200
ssI50
(dp2201
I355
(dp2202
sI36
g2190
sI359
(dp2203
sI137
(dp2204
sI205
(dp2205
sI112
(dp2206
sI259
(dp2207
sI246
(dp2208
sI343
(dp2209
ssI51
(dp2210
I113
(dp2211
sI42
g2198
sI356
(dp2212
sI61
(dp2213
ssI55
(dp2214
I376
(dp2215
sI313
(dp2216
sI235
(dp2217
sI25
g2170
ssI56
(dp2218
I96
(dp2219
sI161
(dp2220
sI388
(dp2221
sI1
g2127
sI73
(dp2222
sI170
(dp2223
sI396
(dp2224
sI301
(dp2225
sI317
(dp2226
sI279
(dp2227
sI347
(dp2228
sI157
(dp2229
ssI60
(dp2230
I194
(dp2231
sI99
(dp2232
sI137
(dp2233
sI205
(dp2234
sI112
(dp2235
sI259
(dp2236
sI343
(dp2237
sI285
(dp2238
ssI61
(dp2239
I113
(dp2240
sI42
g2200
sI51
g2213
sI356
(dp2241
sI161
(dp2242
ssI65
(dp2243
I96
(dp2244
sI161
(dp2245
sI388
(dp2246
sI1
g2120
sI73
(dp2247
sI301
(dp2248
sI157
(dp2249
sI305
(dp2250
sI276
(dp2251
sI279
(dp2252
sI132
(dp2253
sI317
(dp2254
ssI70
(dp2255
I11
g2132
sI115
(dp2256
sI379
(dp2257
sI80
(dp2258
ssI73
(dp2259
I279
(dp2260
sI1
g2121
sI132
(dp2261
sI65
g2247
sI161
(dp2262
sI170
(dp2263
sI359
(dp2264
sI396
(dp2265
sI301
(dp2266
sI305
(dp2267
sI362
(dp2268
sI150
(dp2269
sI249
(dp2270
sI56
g2222
sI388
(dp2271
sI347
(dp2272
sI317
(dp2273
sI127
(dp2274
ssI76
(dp2275
I384
(dp2276
sI259
(dp2277
sI263
(dp2278
sI137
(dp2279
sI11
g2134
sI80
(dp2280
sI145
(dp2281
sI115
(dp2282
sI20
g2148
sI218
(dp2283
sI251
(dp2284
sI127
(dp2285
ssI80
(dp2286
I70
g2258
sI263
(dp2287
sI11
g2135
sI76
g2280
sI112
(dp2288
sI115
(dp2289
sI308
(dp2290
sI251
(dp2291
sI127
(dp2292
ssI82
(dp2293
I267
(dp2294
ssI85
(dp2295
I189
(dp2296
ssI89
(dp2297
I267
(dp2298
sI11
g2140
sI333
(dp2299
sI115
(dp2300
sI27
g2172
sI350
(dp2301
ssI91
(dp2302
I337
(dp2303
ssI96
(dp2304
I1
g2116
sI388
(dp2305
sI65
g2244
sI170
(dp2306
sI141
(dp2307
sI305
(dp2308
sI150
(dp2309
sI56
g2219
sI157
(dp2310
ssI99
(dp2311
I194
(dp2312
sI295
(dp2313
sI330
(dp2314
sI205
(dp2315
sI115
(dp2316
sI343
(dp2317
sI251
(dp2318
sI60
g2232
sI285
(dp2319
sI127
(dp2320
ssI108
(dp2321
I33
g2180
sI325
(dp2322
sI119
(dp2323
sI25
g2162
sI376
(dp2324
sI313
(dp2325
ssI112
(dp2326
I194
(dp2327
sI259
(dp2328
sI137
(dp2329
sI205
(dp2330
sI80
g2288
sI50
g2206
sI60
g2235
sI285
(dp2331
ssI113
(dp2332
I42
g2197
sI51
g2211
sI356
(dp2333
sI61
g2240
ssI115
(dp2334
I99
g2316
sI36
g2191
sI70
g2256
sI359
(dp2335
sI379
(dp2336
sI11
g2137
sI76
g2282
sI80
g2289
sI20
g2152
sI343
(dp2337
sI89
g2300
sI251
(dp2338
sI285
(dp2339
ssI119
(dp2340
I33
g2187
sI134
(dp2341
sI362
(dp2342
sI108
g2323
sI366
(dp2343
sI242
(dp2344
sI276
(dp2345
sI25
g2166
sI376
(dp2346
sI249
(dp2347
sI313
(dp2348
ssI127
(dp2349
I384
(dp2350
sI99
g2320
sI132
(dp2351
sI73
g2274
sI362
(dp2352
sI235
(dp2353
sI76
g2285
sI366
(dp2354
sI80
g2292
sI276
(dp2355
sI36
g2195
sI251
(dp2356
ssI132
(dp2357
I384
(dp2358
sI161
(dp2359
sI187
(dp2360
sI388
(dp2361
sI65
g2253
sI73
g2261
sI396
(dp2362
sI301
(dp2363
sI145
(dp2364
sI279
(dp2365
sI347
(dp2366
sI317
(dp2367
sI127
g2351
ssI134
(dp2368
I33
g2177
sI187
(dp2369
sI325
(dp2370
sI119
g2341
sI362
(dp2371
sI235
(dp2372
sI242
(dp2373
sI276
(dp2374
sI150
(dp2375
sI313
(dp2376
sI25
g2159
sI249
(dp2377
ssI137
(dp2378
I194
(dp2379
sI259
(dp2380
sI76
g2279
sI112
g2329
sI50
g2204
sI246
(dp2381
sI343
(dp2382
sI60
g2233
sI285
(dp2383
ssI141
(dp2384
I96
g2307
sI289
(dp2385
sI279
(dp2386
sI145
(dp2387
ssI145
(dp2388
I384
(dp2389
sI194
(dp2390
sI267
(dp2391
sI132
g2364
sI11
g2136
sI76
g2281
sI141
g2387
sI20
g2151
ssI150
(dp2392
I96
g2309
sI161
(dp2393
sI325
(dp2394
sI134
g2375
sI1
g2119
sI73
g2269
sI305
(dp2395
sI242
(dp2396
sI376
(dp2397
sI33
g2184
sI187
(dp2398
sI157
(dp2399
ssI157
(dp2400
I96
g2310
sI1
g2129
sI388
(dp2401
sI65
g2249
sI396
(dp2402
sI305
(dp2403
sI150
g2399
sI343
(dp2404
sI56
g2229
sI317
(dp2405
ssI161
(dp2406
I65
g2245
sI388
(dp2407
sI1
g2117
sI73
g2262
sI170
(dp2408
sI396
(dp2409
sI301
(dp2410
sI61
g2242
sI305
(dp2411
sI150
g2393
sI279
(dp2412
sI56
g2220
sI132
g2359
sI347
(dp2413
sI317
(dp2414
ssI170
(dp2415
I96
g2306
sI161
g2408
sI388
(dp2416
sI73
g2263
sI396
(dp2417
sI305
(dp2418
sI56
g2223
ssI187
(dp2419
I132
g2360
sI134
g2369
sI150
g2398
ssI189
(dp2420
I85
g2296
sI399
(dp2421
ssI194
(dp2422
I259
(dp2423
sI392
(dp2424
sI137
g2379
sI330
(dp2425
sI205
(dp2426
sI112
g2327
sI145
g2390
sI99
g2312
sI343
(dp2427
sI60
g2231
sI285
(dp2428
ssI200
(dp2429
I384
(dp2430
sI359
(dp2431
sI20
g2145
sI215
(dp2432
ssI205
(dp2433
I194
g2426
sI99
g2315
sI112
g2330
sI50
g2205
sI20
g2149
sI343
(dp2434
sI60
g2234
ssI210
(dp2435
I246
(dp2436
sI343
(dp2437
ssI215
(dp2438
I200
g2432
sI11
g2139
sI267
(dp2439
sI20
g2147
ssI218
(dp2440
I259
(dp2441
sI36
g2194
sI76
g2283
sI308
(dp2442
sI246
(dp2443
sI251
(dp2444
ssI230
(dp2445
I237
(dp2446
sI406
(dp2447
ssI235
(dp2448
I33
g2179
sI325
(dp2449
sI134
g2372
sI362
(dp2450
sI55
g2217
sI366
(dp2451
sI242
(dp2452
sI25
g2161
sI249
(dp2453
sI313
(dp2454
sI127
g2353
ssI237
(dp2455
I406
(dp2456
sI230
g2446
ssI242
(dp2457
I33
g2182
sI134
g2373
sI362
(dp2458
sI235
g2452
sI366
(dp2459
sI276
(dp2460
sI150
g2396
sI313
(dp2461
sI25
g2164
sI119
g2344
ssI246
(dp2462
I36
g2193
sI392
(dp2463
sI137
g2381
sI330
(dp2464
sI210
g2436
sI50
g2208
sI20
g2153
sI218
g2443
sI285
(dp2465
ssI249
(dp2466
I33
g2185
sI325
(dp2467
sI134
g2377
sI73
g2270
sI362
(dp2468
sI235
g2453
sI366
(dp2469
sI276
(dp2470
sI119
g2347
sI376
(dp2471
sI25
g2169
ssI251
(dp2472
I384
(dp2473
sI99
g2318
sI263
(dp2474
sI76
g2284
sI80
g2291
sI115
g2338
sI259
(dp2475
sI20
g2155
sI343
(dp2476
sI218
g2444
sI127
g2356
ssI259
(dp2477
I194
g2423
sI137
g2380
sI76
g2277
sI112
g2328
sI50
g2207
sI343
(dp2478
sI218
g2441
sI251
g2475
sI60
g2236
sI285
(dp2479
ssI263
(dp2480
I80
g2287
sI251
g2474
sI76
g2278
ssI267
(dp2481
I359
(dp2482
sI11
g2133
sI145
g2391
sI82
g2294
sI20
g2142
sI215
g2439
sI89
g2298
ssI276
(dp2483
I33
g2183
sI325
(dp2484
sI134
g2374
sI65
g2251
sI362
(dp2485
sI366
(dp2486
sI242
g2460
sI25
g2165
sI119
g2345
sI376
(dp2487
sI313
(dp2488
sI249
g2470
sI127
g2355
ssI279
(dp2489
I65
g2252
sI388
(dp2490
sI1
g2126
sI161
g2412
sI396
(dp2491
sI301
(dp2492
sI141
g2386
sI305
(dp2493
sI73
g2260
sI343
(dp2494
sI56
g2227
sI132
g2365
sI317
(dp2495
ssI285
(dp2496
I194
g2428
sI259
g2479
sI295
(dp2497
sI392
(dp2498
sI137
g2383
sI359
(dp2499
sI112
g2331
sI115
g2339
sI99
g2319
sI246
g2465
sI343
(dp2500
sI60
g2238
ssI289
(dp2501
I141
g2385
ssI295
(dp2502
I392
(dp2503
sI99
g2313
sI285
g2497
ssI301
(dp2504
I65
g2248
sI388
(dp2505
sI161
g2410
sI73
g2266
sI396
(dp2506
sI305
(dp2507
sI279
g2492
sI56
g2225
sI132
g2363
sI317
(dp2508
ssI305
(dp2509
I96
g2308
sI65
g2250
sI1
g2124
sI161
g2411
sI170
g2418
sI73
g2267
sI301
g2507
sI157
g2403
sI150
g2395
sI279
g2493
sI317
(dp2510
ssI308
(dp2511
I80
g2290
sI218
g2442
sI36
g2192
ssI313
(dp2512
I33
g2186
sI134
g2376
sI362
(dp2513
sI235
g2454
sI108
g2325
sI366
(dp2514
sI242
g2461
sI276
g2488
sI55
g2216
sI376
(dp2515
sI25
g2168
sI119
g2348
ssI317
(dp2516
I65
g2254
sI388
(dp2517
sI1
g2123
sI73
g2273
sI301
g2508
sI161
g2414
sI305
g2510
sI279
g2495
sI56
g2226
sI132
g2367
sI347
(dp2518
sI157
g2405
ssI325
(dp2519
I33
g2176
sI134
g2370
sI362
(dp2520
sI235
g2449
sI108
g2322
sI276
g2484
sI150
g2394
sI25
g2158
sI376
(dp2521
sI249
g2467
ssI330
(dp2522
I194
g2425
sI99
g2314
sI20
g2146
sI246
g2464
ssI333
(dp2523
I89
g2299
sI27
g2173
sI350
(dp2524
ssI337
(dp2525
I91
g2303
sI20
g2144
ssI343
(dp2526
I194
g2427
sI99
g2317
sI251
g2476
sI137
g2382
sI50
g2209
sI285
g2500
sI115
g2337
sI210
g2437
sI259
g2478
sI20
g2154
sI279
g2494
sI205
g2434
sI60
g2237
sI157
g2404
ssI347
(dp2527
I161
g2413
sI132
g2366
sI1
g2128
sI73
g2272
sI396
(dp2528
sI56
g2228
sI388
(dp2529
sI317
g2518
ssI350
(dp2530
I89
g2301
sI27
g2174
sI333
g2524
ssI355
(dp2531
I50
g2202
sI359
(dp2532
ssI356
(dp2533
I113
g2333
sI42
g2199
sI51
g2212
sI61
g2241
ssI359
(dp2534
I355
g2532
sI200
g2431
sI73
g2264
sI267
g2482
sI50
g2203
sI115
g2335
sI20
g2150
sI376
(dp2535
sI285
g2499
ssI362
(dp2536
I384
(dp2537
sI33
g2178
sI25
g2160
sI134
g2371
sI73
g2268
sI235
g2450
sI366
(dp2538
sI242
g2458
sI276
g2485
sI119
g2342
sI376
(dp2539
sI313
g2513
sI249
g2468
sI127
g2352
sI325
g2520
ssI366
(dp2540
I33
g2181
sI25
g2163
sI362
g2538
sI235
g2451
sI242
g2459
sI276
g2486
sI119
g2343
sI376
(dp2541
sI249
g2469
sI313
g2514
sI127
g2354
ssI376
(dp2542
I325
g2521
sI359
g2535
sI362
g2539
sI119
g2346
sI108
g2324
sI366
g2541
sI276
g2487
sI150
g2397
sI55
g2215
sI313
g2515
sI25
g2167
sI249
g2471
ssI379
(dp2543
I115
g2336
sI70
g2257
ssI384
(dp2544
I132
g2358
sI200
g2430
sI362
g2537
sI76
g2276
sI145
g2389
sI36
g2189
sI251
g2473
sI127
g2350
ssI388
(dp2545
I96
g2305
sI161
g2407
sI132
g2361
sI65
g2246
sI73
g2271
sI170
g2416
sI301
g2505
sI157
g2401
sI1
g2118
sI279
g2490
sI56
g2221
sI347
g2529
sI317
g2517
ssI392
(dp2546
I194
g2424
sI396
(dp2547
sI285
g2498
sI246
g2463
sI295
g2503
ssI396
(dp2548
I1
g2122
sI132
g2362
sI161
g2409
sI392
g2547
sI73
g2265
sI170
g2417
sI301
g2506
sI279
g2491
sI56
g2224
sI347
g2528
sI157
g2402
ssI399
(dp2549
I189
g2421
ssI406
(dp2550
I1
g2125
sI20
g2143
sI237
g2456
sI230
g2447
sssg143
(dp2551
sg145
g35
sg146
g2114
sbag1
(g2
g3
Ntp2552
Rp2553
(dp2554
g7
(dp2555
I6
(dp2556
sI9
(dp2557
sI11
(dp2558
sI16
(dp2559
sI21
(dp2560
sI25
(dp2561
sI28
(dp2562
sI33
(dp2563
sI36
(dp2564
sI37
(dp2565
sI42
(dp2566
sI47
(dp2567
sI51
(dp2568
sI55
(dp2569
sI56
(dp2570
sI57
(dp2571
sI61
(dp2572
sI65
(dp2573
sI66
(dp2574
sI70
(dp2575
sI73
(dp2576
sI76
(dp2577
sI80
(dp2578
sI82
(dp2579
sI86
(dp2580
sI92
(dp2581
sI96
(dp2582
sI99
(dp2583
sI100
(dp2584
sI104
(dp2585
sI108
(dp2586
sI113
(dp2587
sI115
(dp2588
sI119
(dp2589
sI125
(dp2590
sI127
(dp2591
sI134
(dp2592
sI138
(dp2593
sI141
(dp2594
sI142
(dp2595
sI146
(dp2596
sI150
(dp2597
sI151
(dp2598
sI157
(dp2599
sI161
(dp2600
sI167
(dp2601
sI170
(dp2602
sI181
(dp2603
sI187
(dp2604
sI190
(dp2605
sI195
(dp2606
sI200
(dp2607
sI206
(dp2608
sI211
(dp2609
sI215
(dp2610
sI219
(dp2611
sI223
(dp2612
sI229
(dp2613
sI230
(dp2614
sI235
(dp2615
sI237
(dp2616
sI242
(dp2617
sI247
(dp2618
sI249
(dp2619
sI251
(dp2620
sI256
(dp2621
sI259
(dp2622
sI260
(dp2623
sI264
(dp2624
sI267
(dp2625
sI272
(dp2626
sI276
(dp2627
sI279
(dp2628
sI286
(dp2629
sI289
(dp2630
sI290
(dp2631
sI296
(dp2632
sI301
(dp2633
sI302
(dp2634
sI305
(dp2635
sI309
(dp2636
sI313
(dp2637
sI317
(dp2638
sI318
(dp2639
sI325
(dp2640
sI331
(dp2641
sI334
(dp2642
sI338
(dp2643
sI344
(dp2644
sI347
(dp2645
sI351
(dp2646
sI356
(dp2647
sI359
(dp2648
sI362
(dp2649
sI366
(dp2650
sI373
(dp2651
sI376
(dp2652
sI379
(dp2653
sI384
(dp2654
sI388
(dp2655
sI389
(dp2656
sI393
(dp2657
sI396
(dp2658
sI400
(dp2659
sI403
(dp2660
sI406
(dp2661
ssg34
g35
sg36
g35
sg37
(dp2662
I6
(dp2663
I318
(dp2664
sI229
(dp2665
sI334
(dp2666
sI151
(dp2667
ssI9
(dp2668
I318
(dp2669
sI151
(dp2670
ssI11
(dp2671
I115
(dp2672
sI187
(dp2673
ssI16
(dp2674
I384
(dp2675
ssI21
(dp2676
I28
(dp2677
sI373
(dp2678
sI37
(dp2679
ssI25
(dp2680
I388
(dp2681
sI134
(dp2682
sI267
(dp2683
sI396
(dp2684
sI400
(dp2685
sI276
(dp2686
sI150
(dp2687
sI279
(dp2688
sI157
(dp2689
sI33
(dp2690
sI167
(dp2691
sI301
(dp2692
sI181
(dp2693
sI56
(dp2694
sI65
(dp2695
sI73
(dp2696
sI331
(dp2697
sI206
(dp2698
sI344
(dp2699
sI96
(dp2700
sI230
(dp2701
sI362
(dp2702
sI235
(dp2703
sI366
(dp2704
sI242
(dp2705
sI119
(dp2706
sI376
(dp2707
sI249
(dp2708
sI127
(dp2709
ssI28
(dp2710
I290
(dp2711
sI37
(dp2712
sI373
(dp2713
sI142
(dp2714
sI146
(dp2715
sI21
g2677
sI219
(dp2716
sI318
(dp2717
sI351
(dp2718
ssI33
(dp2719
I279
(dp2720
sI161
(dp2721
sI66
(dp2722
sI235
(dp2723
sI25
g2690
sI134
(dp2724
sI296
(dp2725
sI73
(dp2726
sI362
(dp2727
sI119
(dp2728
sI396
(dp2729
sI366
(dp2730
sI80
(dp2731
sI276
(dp2732
sI313
(dp2733
sI376
(dp2734
sI249
(dp2735
sI347
(dp2736
sI157
(dp2737
sI215
(dp2738
sI325
(dp2739
ssI36
(dp2740
I115
(dp2741
sI251
(dp2742
ssI37
(dp2743
I351
(dp2744
sI146
(dp2745
sI21
g2679
sI219
(dp2746
sI28
g2712
sI373
(dp2747
ssI42
(dp2748
I331
(dp2749
sI356
(dp2750
sI195
(dp2751
sI279
(dp2752
sI400
(dp2753
sI113
(dp2754
sI51
(dp2755
sI119
(dp2756
sI61
(dp2757
ssI47
(dp2758
I57
(dp2759
sI219
(dp2760
sI318
(dp2761
ssI51
(dp2762
I356
(dp2763
sI42
g2755
sI113
(dp2764
sI215
(dp2765
sI260
(dp2766
sI61
(dp2767
ssI55
(dp2768
I376
(dp2769
sI313
(dp2770
sI362
(dp2771
sI134
(dp2772
ssI56
(dp2773
I65
(dp2774
sI388
(dp2775
sI25
g2694
ssI57
(dp2776
I362
(dp2777
sI219
(dp2778
sI47
g2759
ssI61
(dp2779
I356
(dp2780
sI42
g2757
sI113
(dp2781
sI338
(dp2782
sI51
g2767
sI119
(dp2783
ssI65
(dp2784
I96
(dp2785
sI388
(dp2786
sI141
(dp2787
sI157
(dp2788
sI150
(dp2789
sI279
(dp2790
sI56
g2774
sI25
g2695
sI317
(dp2791
ssI66
(dp2792
I33
g2722
sI167
(dp2793
sI104
(dp2794
sI393
(dp2795
sI331
(dp2796
sI396
(dp2797
sI206
(dp2798
sI400
(dp2799
sI403
(dp2800
sI181
(dp2801
sI86
(dp2802
sI73
(dp2803
sI249
(dp2804
sI119
(dp2805
sI157
(dp2806
sI190
(dp2807
sI247
(dp2808
ssI70
(dp2809
I251
(dp2810
sI359
(dp2811
sI200
(dp2812
sI73
(dp2813
sI215
(dp2814
sI76
(dp2815
sI338
(dp2816
sI195
(dp2817
sI187
(dp2818
sI279
(dp2819
sI379
(dp2820
sI223
(dp2821
ssI73
(dp2822
I33
g2726
sI66
g2803
sI134
(dp2823
sI70
g2813
sI249
(dp2824
sI362
(dp2825
sI235
(dp2826
sI396
(dp2827
sI366
(dp2828
sI242
(dp2829
sI276
(dp2830
sI279
(dp2831
sI376
(dp2832
sI313
(dp2833
sI25
g2696
sI347
(dp2834
sI170
(dp2835
ssI76
(dp2836
I80
(dp2837
sI267
(dp2838
sI215
(dp2839
sI70
g2815
sI251
(dp2840
ssI80
(dp2841
I33
g2731
sI251
(dp2842
sI76
g2837
ssI82
(dp2843
I267
(dp2844
ssI86
(dp2845
I66
g2802
sI167
(dp2846
sI104
(dp2847
sI393
(dp2848
sI138
(dp2849
sI331
(dp2850
sI206
(dp2851
sI400
(dp2852
sI264
(dp2853
sI403
(dp2854
sI181
(dp2855
sI247
(dp2856
sI190
(dp2857
ssI92
(dp2858
I100
(dp2859
sI296
(dp2860
sI138
(dp2861
sI104
(dp2862
sI309
(dp2863
sI344
(dp2864
ssI96
(dp2865
I65
g2785
sI388
(dp2866
sI396
(dp2867
sI141
(dp2868
sI301
(dp2869
sI25
g2700
ssI99
(dp2870
I344
(dp2871
ssI100
(dp2872
I296
(dp2873
sI138
(dp2874
sI309
(dp2875
sI279
(dp2876
sI344
(dp2877
sI92
g2859
sI127
(dp2878
ssI104
(dp2879
I66
g2794
sI167
(dp2880
sI393
(dp2881
sI331
(dp2882
sI206
(dp2883
sI400
(dp2884
sI403
(dp2885
sI215
(dp2886
sI181
(dp2887
sI86
g2847
sI247
(dp2888
sI92
g2862
sI190
(dp2889
ssI108
(dp2890
I393
(dp2891
sI235
(dp2892
sI366
(dp2893
sI119
(dp2894
ssI113
(dp2895
I256
(dp2896
sI260
(dp2897
sI42
g2754
sI51
g2764
sI279
(dp2898
sI356
(dp2899
sI61
g2781
ssI115
(dp2900
I11
g2672
sI36
g2741
ssI119
(dp2901
I33
g2728
sI66
g2805
sI134
(dp2902
sI276
(dp2903
sI200
(dp2904
sI362
(dp2905
sI42
g2756
sI235
(dp2906
sI108
g2894
sI366
(dp2907
sI242
(dp2908
sI25
g2706
sI215
(dp2909
sI313
(dp2910
sI249
(dp2911
sI61
g2783
sI325
(dp2912
ssI125
(dp2913
I167
(dp2914
sI393
(dp2915
sI206
(dp2916
sI400
(dp2917
sI403
(dp2918
sI181
(dp2919
sI247
(dp2920
sI190
(dp2921
ssI127
(dp2922
I100
g2878
sI325
(dp2923
sI134
(dp2924
sI359
(dp2925
sI200
(dp2926
sI362
(dp2927
sI235
(dp2928
sI396
(dp2929
sI302
(dp2930
sI338
(dp2931
sI211
(dp2932
sI276
(dp2933
sI366
(dp2934
sI25
g2709
sI313
(dp2935
sI249
(dp2936
sI389
(dp2937
ssI134
(dp2938
I33
g2724
sI25
g2682
sI119
g2902
sI200
(dp2939
sI73
g2823
sI362
(dp2940
sI279
(dp2941
sI396
(dp2942
sI366
(dp2943
sI242
(dp2944
sI276
(dp2945
sI302
(dp2946
sI55
g2772
sI376
(dp2947
sI313
(dp2948
sI249
(dp2949
sI170
(dp2950
sI127
g2924
ssI138
(dp2951
I100
g2874
sI230
(dp2952
sI296
(dp2953
sI338
(dp2954
sI211
(dp2955
sI309
(dp2956
sI86
g2849
sI344
(dp2957
sI92
g2861
ssI141
(dp2958
I96
g2868
sI289
(dp2959
sI388
(dp2960
sI65
g2787
sI301
(dp2961
sI317
(dp2962
ssI142
(dp2963
I219
(dp2964
sI28
g2714
ssI146
(dp2965
I28
g2715
sI37
g2745
sI318
(dp2966
ssI150
(dp2967
I25
g2687
sI215
(dp2968
sI65
g2789
sI359
(dp2969
ssI151
(dp2970
I9
g2670
sI318
(dp2971
sI229
(dp2972
sI6
g2667
ssI157
(dp2973
I65
g2788
sI66
g2806
sI276
(dp2974
sI33
g2737
sI161
(dp2975
sI301
(dp2976
sI302
(dp2977
sI25
g2689
sI279
(dp2978
sI313
(dp2979
sI317
(dp2980
ssI161
(dp2981
I33
g2721
sI235
(dp2982
sI170
(dp2983
sI215
(dp2984
sI157
g2975
sI276
(dp2985
sI279
(dp2986
sI249
(dp2987
sI347
(dp2988
sI313
(dp2989
ssI167
(dp2990
I66
g2793
sI104
g2880
sI393
(dp2991
sI170
(dp2992
sI331
(dp2993
sI206
(dp2994
sI400
(dp2995
sI403
(dp2996
sI181
(dp2997
sI86
g2846
sI247
(dp2998
sI25
g2691
sI125
g2914
sI190
(dp2999
ssI170
(dp3000
I161
g2983
sI134
g2950
sI167
g2992
sI73
g2835
sI362
(dp3001
sI235
(dp3002
sI396
(dp3003
sI366
(dp3004
sI279
(dp3005
ssI181
(dp3006
I66
g2801
sI356
(dp3007
sI167
g2997
sI104
g2887
sI393
(dp3008
sI331
(dp3009
sI396
(dp3010
sI400
(dp3011
sI338
(dp3012
sI403
(dp3013
sI86
g2855
sI247
(dp3014
sI25
g2693
sI125
g2919
sI190
(dp3015
ssI187
(dp3016
I11
g2673
sI70
g2818
ssI190
(dp3017
I66
g2807
sI167
g2999
sI104
g2889
sI393
(dp3018
sI331
(dp3019
sI206
(dp3020
sI264
(dp3021
sI403
(dp3022
sI181
g3015
sI86
g2857
sI247
(dp3023
sI125
g2921
ssI195
(dp3024
I384
(dp3025
sI256
(dp3026
sI259
(dp3027
sI260
(dp3028
sI70
g2817
sI296
(dp3029
sI393
(dp3030
sI42
g2751
sI400
(dp3031
sI338
(dp3032
sI211
(dp3033
sI279
(dp3034
ssI200
(dp3035
I70
g2812
sI134
g2939
sI359
(dp3036
sI362
(dp3037
sI235
(dp3038
sI396
(dp3039
sI276
(dp3040
sI313
(dp3041
sI376
(dp3042
sI249
(dp3043
sI119
g2904
sI215
(dp3044
sI127
g2926
ssI206
(dp3045
I66
g2798
sI167
g2994
sI104
g2883
sI393
(dp3046
sI331
(dp3047
sI400
(dp3048
sI403
(dp3049
sI86
g2851
sI247
(dp3050
sI25
g2698
sI125
g2916
sI190
g3020
ssI211
(dp3051
I256
(dp3052
sI195
g3033
sI260
(dp3053
sI138
g2955
sI272
(dp3054
sI338
(dp3055
sI279
(dp3056
sI344
(dp3057
sI127
g2932
ssI215
(dp3058
I161
g2984
sI70
g2814
sI33
g2738
sI200
g3044
sI76
g2839
sI362
(dp3059
sI359
(dp3060
sI396
(dp3061
sI104
g2886
sI51
g2765
sI150
g2968
sI119
g2909
sI376
(dp3062
ssI219
(dp3063
I37
g2746
sI142
g2964
sI47
g2760
sI373
(dp3064
sI57
g2778
sI28
g2716
sI318
(dp3065
sI351
(dp3066
ssI223
(dp3067
I256
(dp3068
sI70
g2821
ssI229
(dp3069
I290
(dp3070
sI6
g2665
sI151
g2972
ssI230
(dp3071
I296
(dp3072
sI138
g2952
sI237
(dp3073
sI366
(dp3074
sI406
(dp3075
sI344
(dp3076
sI25
g2701
ssI235
(dp3077
I384
(dp3078
sI33
g2723
sI161
g2982
sI25
g2703
sI359
(dp3079
sI200
g3038
sI73
g2826
sI362
(dp3080
sI119
g2906
sI108
g2892
sI366
(dp3081
sI313
(dp3082
sI276
(dp3083
sI279
(dp3084
sI249
(dp3085
sI251
(dp3086
sI170
g3002
sI127
g2928
ssI237
(dp3087
I406
(dp3088
sI230
g3073
ssI242
(dp3089
I134
g2944
sI359
(dp3090
sI393
(dp3091
sI73
g2829
sI119
g2908
sI25
g2705
ssI247
(dp3092
I66
g2808
sI167
g2998
sI104
g2888
sI393
(dp3093
sI331
(dp3094
sI206
g3050
sI400
(dp3095
sI403
(dp3096
sI181
g3014
sI86
g2856
sI125
g2920
sI190
g3023
ssI249
(dp3097
I279
(dp3098
sI33
g2735
sI66
g2804
sI325
(dp3099
sI134
g2949
sI161
g2987
sI200
g3043
sI393
(dp3100
sI362
(dp3101
sI235
g3085
sI366
(dp3102
sI384
(dp3103
sI276
(dp3104
sI73
g2824
sI119
g2911
sI376
(dp3105
sI25
g2708
sI251
(dp3106
sI313
(dp3107
sI127
g2936
ssI251
(dp3108
I235
g3086
sI36
g2742
sI70
g2810
sI267
(dp3109
sI76
g2840
sI80
g2842
sI249
g3106
ssI256
(dp3110
I113
g2896
sI223
g3068
sI211
g3052
sI195
g3026
sI359
(dp3111
ssI259
(dp3112
I338
(dp3113
sI195
g3027
ssI260
(dp3114
I195
g3028
sI211
g3053
sI272
(dp3115
sI113
g2897
sI338
(dp3116
sI51
g2766
ssI264
(dp3117
I190
g3021
sI86
g2853
ssI267
(dp3118
I25
g2683
sI82
g2844
sI251
g3109
sI76
g2838
sI359
(dp3119
ssI272
(dp3120
I211
g3054
sI260
g3115
sI389
(dp3121
sI286
(dp3122
ssI276
(dp3123
I384
(dp3124
sI33
g2732
sI119
g2903
sI325
(dp3125
sI134
g2945
sI161
g2985
sI200
g3040
sI73
g2830
sI362
(dp3126
sI235
g3083
sI396
(dp3127
sI366
(dp3128
sI25
g2686
sI313
(dp3129
sI376
(dp3130
sI249
g3104
sI347
(dp3131
sI157
g2974
sI127
g2933
ssI279
(dp3132
I388
(dp3133
sI134
g2941
sI396
(dp3134
sI406
(dp3135
sI25
g2688
sI157
g2978
sI33
g2720
sI170
g3005
sI305
(dp3136
sI317
(dp3137
sI65
g2790
sI195
g3034
sI70
g2819
sI161
g2986
sI73
g2831
sI338
(dp3138
sI211
g3056
sI347
(dp3139
sI100
g2876
sI362
(dp3140
sI235
g3084
sI113
g2898
sI376
(dp3141
sI249
g3098
sI42
g2752
ssI286
(dp3142
I272
g3122
ssI289
(dp3143
I141
g2959
ssI290
(dp3144
I28
g2711
sI229
g3070
sI351
(dp3145
ssI296
(dp3146
I33
g2725
sI195
g3029
sI100
g2873
sI230
g3072
sI138
g2953
sI309
(dp3147
sI344
(dp3148
sI92
g2860
ssI301
(dp3149
I96
g2869
sI388
(dp3150
sI141
g2961
sI305
(dp3151
sI25
g2692
sI157
g2976
ssI302
(dp3152
I157
g2977
sI338
(dp3153
sI389
(dp3154
sI134
g2946
sI127
g2930
ssI305
(dp3155
I317
(dp3156
sI301
g3151
sI279
g3136
ssI309
(dp3157
I344
(dp3158
sI296
g3147
sI138
g2956
sI92
g2863
sI100
g2875
ssI313
(dp3159
I33
g2733
sI235
g3082
sI134
g2948
sI161
g2989
sI200
g3041
sI73
g2833
sI119
g2910
sI276
g3129
sI55
g2770
sI376
(dp3160
sI249
g3107
sI157
g2979
sI127
g2935
ssI317
(dp3161
I65
g2791
sI388
(dp3162
sI141
g2962
sI305
g3156
sI279
g3137
sI157
g2980
ssI318
(dp3163
I6
g2664
sI9
g2669
sI47
g2761
sI146
g2966
sI151
g2971
sI219
g3065
sI28
g2717
ssI325
(dp3164
I33
g2739
sI362
(dp3165
sI276
g3125
sI119
g2912
sI376
(dp3166
sI249
g3099
sI127
g2923
ssI331
(dp3167
I66
g2796
sI167
g2993
sI104
g2882
sI393
(dp3168
sI42
g2749
sI206
g3047
sI400
(dp3169
sI403
(dp3170
sI181
g3009
sI86
g2850
sI247
g3094
sI25
g2697
sI190
g3019
ssI334
(dp3171
I6
g2666
ssI338
(dp3172
I259
g3113
sI260
g3116
sI70
g2816
sI211
g3055
sI138
g2954
sI302
g3153
sI195
g3032
sI181
g3012
sI279
g3138
sI344
(dp3173
sI61
g2782
sI127
g2931
ssI344
(dp3174
I99
g2871
sI100
g2877
sI230
g3076
sI296
g3148
sI138
g2957
sI338
g3173
sI211
g3057
sI309
g3158
sI25
g2699
sI92
g2864
ssI347
(dp3175
I33
g2736
sI161
g2988
sI73
g2834
sI396
(dp3176
sI403
(dp3177
sI276
g3131
sI279
g3139
ssI351
(dp3178
I290
g3145
sI219
g3066
sI28
g2718
sI37
g2744
sI373
(dp3179
ssI356
(dp3180
I113
g2899
sI42
g2750
sI51
g2763
sI61
g2780
sI181
g3007
ssI359
(dp3181
I256
g3111
sI235
g3079
sI70
g2811
sI200
g3036
sI267
g3119
sI242
g3090
sI150
g2969
sI215
g3060
sI376
(dp3182
sI127
g2925
ssI362
(dp3183
I279
g3140
sI33
g2727
sI235
g3080
sI325
g3165
sI134
g2940
sI200
g3037
sI73
g2825
sI170
g3001
sI55
g2771
sI396
(dp3184
sI119
g2905
sI276
g3126
sI57
g2777
sI215
g3059
sI376
(dp3185
sI25
g2702
sI249
g3101
sI127
g2927
ssI366
(dp3186
I33
g2730
sI134
g2943
sI230
g3074
sI73
g2828
sI170
g3004
sI235
g3081
sI108
g2893
sI276
g3128
sI119
g2907
sI249
g3102
sI25
g2704
sI127
g2934
ssI373
(dp3187
I21
g2678
sI219
g3064
sI28
g2713
sI37
g2747
sI351
g3179
ssI376
(dp3188
I33
g2734
sI25
g2707
sI134
g2947
sI359
g3182
sI200
g3042
sI73
g2832
sI362
g3185
sI279
g3141
sI276
g3130
sI215
g3062
sI313
g3160
sI249
g3105
sI55
g2769
sI325
g3166
ssI379
(dp3189
I70
g2820
ssI384
(dp3190
I16
g2675
sI249
g3103
sI195
g3025
sI276
g3124
sI235
g3078
ssI388
(dp3191
I96
g2866
sI65
g2786
sI301
g3150
sI141
g2960
sI279
g3133
sI56
g2775
sI25
g2681
sI317
g3162
ssI389
(dp3192
I272
g3121
sI302
g3154
sI127
g2937
ssI393
(dp3193
I66
g2795
sI195
g3030
sI167
g2991
sI104
g2881
sI331
g3168
sI108
g2891
sI206
g3046
sI242
g3091
sI181
g3008
sI86
g2848
sI247
g3093
sI249
g3100
sI125
g2915
sI190
g3018
ssI396
(dp3194
I96
g2867
sI33
g2729
sI66
g2797
sI134
g2942
sI200
g3039
sI73
g2827
sI362
g3184
sI279
g3134
sI276
g3127
sI181
g3010
sI215
g3061
sI25
g2684
sI347
g3176
sI170
g3003
sI127
g2929
ssI400
(dp3195
I66
g2799
sI195
g3031
sI167
g2995
sI104
g2884
sI42
g2753
sI331
g3169
sI206
g3048
sI403
(dp3196
sI181
g3011
sI86
g2852
sI247
g3095
sI25
g2685
sI125
g2917
ssI403
(dp3197
I66
g2800
sI167
g2996
sI104
g2885
sI331
g3170
sI206
g3049
sI400
g3196
sI181
g3013
sI86
g2854
sI247
g3096
sI347
g3177
sI125
g2918
sI190
g3022
ssI406
(dp3198
I237
g3088
sI230
g3075
sI279
g3135
sssg143
(dp3199
sg145
g35
sg146
g2662
sbag1
(g2
g3
Ntp3200
Rp3201
(dp3202
g7
(dp3203
I384
(dp3204
sI256
(dp3205
sI2
(dp3206
sI34
(dp3207
sI260
(dp3208
sI389
(dp3209
sI6
(dp3210
sI385
(dp3211
sI393
(dp3212
sI138
(dp3213
sI267
(dp3214
sI142
(dp3215
sI400
(dp3216
sI17
(dp3217
sI146
(dp3218
sI403
(dp3219
sI276
(dp3220
sI21
(dp3221
sI151
(dp3222
sI28
(dp3223
sI128
(dp3224
sI162
(dp3225
sI37
(dp3226
sI167
(dp3227
sI296
(dp3228
sI297
(dp3229
sI42
(dp3230
sI302
(dp3231
sI47
(dp3232
sI177
(dp3233
sI313
(dp3234
sI51
(dp3235
sI181
(dp3236
sI9
(dp3237
sI57
(dp3238
sI223
(dp3239
sI61
(dp3240
sI190
(dp3241
sI309
(dp3242
sI66
(dp3243
sI195
(dp3244
sI326
(dp3245
sI70
(dp3246
sI373
(dp3247
sI200
(dp3248
sI331
(dp3249
sI76
(dp3250
sI290
(dp3251
sI206
(dp3252
sI11
(dp3253
sI338
(dp3254
sI211
(dp3255
sI334
(dp3256
sI86
(dp3257
sI215
(dp3258
sI344
(dp3259
sI100
(dp3260
sI219
(dp3261
sI92
(dp3262
sI351
(dp3263
sI379
(dp3264
sI97
(dp3265
sI187
(dp3266
sI356
(dp3267
sI229
(dp3268
sI359
(dp3269
sI104
(dp3270
sI80
(dp3271
sI236
(dp3272
sI272
(dp3273
sI367
(dp3274
sI113
(dp3275
sI115
(dp3276
sI318
(dp3277
sI247
(dp3278
sI120
(dp3279
sI251
(dp3280
sI252
(dp3281
sI125
(dp3282
sI127
(dp3283
ssg34
g35
sg36
g35
sg37
(dp3284
I384
(dp3285
I47
(dp3286
ssI256
(dp3287
I57
(dp3288
sI351
(dp3289
ssI2
(dp3290
I162
(dp3291
sI100
(dp3292
sI177
(dp3293
sI296
(dp3294
sI138
(dp3295
sI11
(dp3296
sI272
(dp3297
sI17
(dp3298
sI21
(dp3299
sI344
(dp3300
sI92
(dp3301
sI309
(dp3302
ssI34
(dp3303
I223
(dp3304
ssI260
(dp3305
I177
(dp3306
sI338
(dp3307
sI211
(dp3308
sI195
(dp3309
ssI389
(dp3310
I215
(dp3311
sI334
(dp3312
sI47
(dp3313
sI17
(dp3314
sI302
(dp3315
sI151
(dp3316
sI373
(dp3317
ssI6
(dp3318
I290
(dp3319
sI229
(dp3320
sI9
(dp3321
sI331
(dp3322
sI247
(dp3323
sI334
(dp3324
sI47
(dp3325
sI146
(dp3326
sI86
(dp3327
sI151
(dp3328
sI219
(dp3329
sI28
(dp3330
sI351
(dp3331
ssI385
(dp3332
I47
(dp3333
sI367
(dp3334
ssI393
(dp3335
I66
(dp3336
sI229
(dp3337
sI167
(dp3338
sI104
(dp3339
sI42
(dp3340
sI331
(dp3341
sI206
(dp3342
sI125
(dp3343
sI400
(dp3344
sI338
(dp3345
sI334
(dp3346
sI86
(dp3347
sI247
(dp3348
sI138
(dp3349
sI190
(dp3350
sI181
(dp3351
ssI138
(dp3352
I66
(dp3353
sI100
(dp3354
sI296
(dp3355
sI28
(dp3356
sI2
g3295
sI367
(dp3357
sI17
(dp3358
sI309
(dp3359
sI393
g3349
sI344
(dp3360
sI92
(dp3361
sI21
(dp3362
ssI267
(dp3363
I17
(dp3364
sI162
(dp3365
ssI142
(dp3366
I290
(dp3367
sI37
(dp3368
sI331
(dp3369
sI334
(dp3370
sI146
(dp3371
sI247
(dp3372
sI219
(dp3373
sI28
(dp3374
sI125
(dp3375
sI318
(dp3376
sI351
(dp3377
ssI400
(dp3378
I66
(dp3379
sI167
(dp3380
sI104
(dp3381
sI393
g3344
sI331
(dp3382
sI151
(dp3383
sI206
(dp3384
sI61
(dp3385
sI113
(dp3386
sI146
(dp3387
sI403
(dp3388
sI334
(dp3389
sI309
(dp3390
sI86
(dp3391
sI247
(dp3392
sI92
(dp3393
sI125
(dp3394
sI190
(dp3395
sI296
(dp3396
ssI17
(dp3397
I2
g3298
sI100
(dp3398
sI389
g3314
sI296
(dp3399
sI138
g3358
sI267
g3364
sI236
(dp3400
sI309
(dp3401
sI344
(dp3402
sI92
(dp3403
ssI146
(dp3404
I290
(dp3405
sI37
(dp3406
sI6
g3326
sI9
(dp3407
sI331
(dp3408
sI190
(dp3409
sI66
(dp3410
sI334
(dp3411
sI47
(dp3412
sI400
g3387
sI142
g3371
sI151
(dp3413
sI219
(dp3414
sI28
(dp3415
sI318
(dp3416
sI229
(dp3417
ssI403
(dp3418
I66
(dp3419
sI356
(dp3420
sI167
(dp3421
sI104
(dp3422
sI373
(dp3423
sI331
(dp3424
sI206
(dp3425
sI400
g3388
sI318
(dp3426
sI181
(dp3427
sI86
(dp3428
sI247
(dp3429
sI219
(dp3430
sI125
(dp3431
sI190
(dp3432
sI21
(dp3433
ssI276
(dp3434
I80
(dp3435
sI76
(dp3436
ssI21
(dp3437
I162
(dp3438
sI138
g3362
sI2
g3299
sI403
g3433
sI66
(dp3439
sI302
(dp3440
sI115
(dp3441
sI373
(dp3442
sI290
(dp3443
sI351
(dp3444
sI309
(dp3445
ssI151
(dp3446
I290
(dp3447
sI229
(dp3448
sI389
g3316
sI6
g3328
sI167
(dp3449
sI9
(dp3450
sI252
(dp3451
sI334
(dp3452
sI47
(dp3453
sI400
g3383
sI146
g3413
sI302
(dp3454
sI86
(dp3455
sI57
(dp3456
sI219
(dp3457
sI28
(dp3458
sI37
(dp3459
sI318
(dp3460
sI351
(dp3461
ssI28
(dp3462
I290
(dp3463
sI229
(dp3464
sI6
g3330
sI9
(dp3465
sI138
g3356
sI66
(dp3466
sI334
(dp3467
sI47
(dp3468
sI146
g3415
sI142
g3374
sI151
g3458
sI57
(dp3469
sI219
(dp3470
sI252
(dp3471
sI37
(dp3472
sI318
(dp3473
sI351
(dp3474
ssI128
(dp3475
I120
(dp3476
sI313
(dp3477
sI66
(dp3478
sI297
(dp3479
ssI162
(dp3480
I2
g3291
sI267
g3365
sI21
g3438
sI326
(dp3481
ssI37
(dp3482
I290
(dp3483
sI229
(dp3484
sI359
(dp3485
sI142
g3368
sI47
(dp3486
sI146
g3406
sI181
(dp3487
sI86
(dp3488
sI151
g3459
sI57
(dp3489
sI219
(dp3490
sI28
g3472
sI318
(dp3491
sI351
(dp3492
ssI167
(dp3493
I66
(dp3494
sI331
(dp3495
sI104
(dp3496
sI393
g3338
sI42
(dp3497
sI151
g3449
sI290
(dp3498
sI206
(dp3499
sI125
(dp3500
sI400
g3380
sI403
g3421
sI334
(dp3501
sI373
(dp3502
sI86
(dp3503
sI247
(dp3504
sI61
(dp3505
sI190
(dp3506
sI181
(dp3507
ssI296
(dp3508
I2
g3294
sI100
(dp3509
sI138
g3355
sI400
g3396
sI17
g3399
sI309
(dp3510
sI344
(dp3511
sI219
(dp3512
sI92
(dp3513
ssI297
(dp3514
I120
(dp3515
sI128
g3479
sI313
(dp3516
ssI42
(dp3517
I356
(dp3518
sI167
g3497
sI177
(dp3519
sI331
(dp3520
sI113
(dp3521
sI51
(dp3522
sI393
g3340
sI61
(dp3523
ssI302
(dp3524
I389
g3315
sI334
(dp3525
sI373
(dp3526
sI151
g3454
sI127
(dp3527
sI21
g3440
ssI47
(dp3528
I384
g3286
sI385
g3333
sI290
(dp3529
sI229
(dp3530
sI389
g3313
sI6
g3325
sI359
(dp3531
sI351
(dp3532
sI190
(dp3533
sI181
(dp3534
sI206
(dp3535
sI367
(dp3536
sI146
g3412
sI334
(dp3537
sI151
g3453
sI57
(dp3538
sI219
(dp3539
sI28
g3468
sI37
g3486
sI318
(dp3540
sI127
(dp3541
ssI177
(dp3542
I100
(dp3543
sI2
g3293
sI195
(dp3544
sI356
(dp3545
sI326
(dp3546
sI42
g3519
sI334
(dp3547
sI367
(dp3548
sI206
(dp3549
sI57
(dp3550
sI260
g3306
sI61
(dp3551
sI318
(dp3552
sI223
(dp3553
ssI313
(dp3554
I128
g3477
sI297
g3516
sI120
(dp3555
sI127
(dp3556
ssI51
(dp3557
I113
(dp3558
sI42
g3522
sI195
(dp3559
sI356
(dp3560
sI61
(dp3561
ssI181
(dp3562
I66
(dp3563
sI37
g3487
sI167
g3507
sI104
(dp3564
sI393
g3351
sI331
(dp3565
sI206
(dp3566
sI47
g3534
sI403
g3427
sI318
(dp3567
sI86
(dp3568
sI247
(dp3569
sI125
(dp3570
sI190
(dp3571
sI229
(dp3572
ssI9
(dp3573
I229
(dp3574
sI6
g3321
sI334
(dp3575
sI146
g3407
sI151
g3450
sI28
g3465
sI351
(dp3576
ssI57
(dp3577
I256
g3288
sI290
(dp3578
sI229
(dp3579
sI37
g3489
sI334
(dp3580
sI47
g3538
sI272
(dp3581
sI177
g3550
sI190
(dp3582
sI151
g3456
sI219
(dp3583
sI28
g3469
sI125
(dp3584
sI318
(dp3585
sI351
(dp3586
ssI223
(dp3587
I34
g3304
sI70
(dp3588
sI331
(dp3589
sI66
(dp3590
sI177
g3553
sI115
(dp3591
ssI61
(dp3592
I356
(dp3593
sI177
g3551
sI42
g3523
sI331
(dp3594
sI125
(dp3595
sI400
g3385
sI113
(dp3596
sI51
g3561
sI167
g3505
ssI190
(dp3597
I66
(dp3598
sI167
g3506
sI393
g3350
sI331
(dp3599
sI206
(dp3600
sI47
g3533
sI400
g3395
sI146
g3409
sI403
g3432
sI334
(dp3601
sI181
g3571
sI86
(dp3602
sI247
(dp3603
sI57
g3582
sI219
(dp3604
sI125
(dp3605
sI318
(dp3606
ssI309
(dp3607
I2
g3302
sI100
(dp3608
sI17
g3401
sI296
g3510
sI138
g3359
sI66
(dp3609
sI400
g3390
sI113
(dp3610
sI21
g3445
sI344
(dp3611
sI92
(dp3612
ssI66
(dp3613
I128
g3478
sI393
g3336
sI138
g3353
sI400
g3379
sI146
g3410
sI403
g3419
sI21
g3439
sI28
g3466
sI167
g3494
sI309
g3609
sI318
(dp3614
sI181
g3563
sI331
(dp3615
sI334
(dp3616
sI211
(dp3617
sI206
(dp3618
sI86
(dp3619
sI219
(dp3620
sI223
g3590
sI356
(dp3621
sI190
g3598
sI247
(dp3622
sI125
(dp3623
ssI195
(dp3624
I344
(dp3625
sI177
g3544
sI338
(dp3626
sI51
g3559
sI260
g3309
ssI326
(dp3627
I92
(dp3628
sI177
g3546
sI162
g3481
sI236
(dp3629
sI367
(dp3630
ssI70
(dp3631
I379
(dp3632
sI187
(dp3633
sI223
g3588
ssI373
(dp3634
I389
g3317
sI167
g3502
sI11
(dp3635
sI403
g3423
sI302
g3526
sI115
(dp3636
sI21
g3442
sI127
(dp3637
ssI200
(dp3638
I127
(dp3639
ssI331
(dp3640
I66
g3615
sI229
(dp3641
sI6
g3322
sI167
g3495
sI393
g3341
sI42
g3520
sI290
(dp3642
sI142
g3369
sI125
(dp3643
sI400
g3382
sI206
(dp3644
sI146
g3408
sI403
g3424
sI334
(dp3645
sI181
g3565
sI86
(dp3646
sI247
(dp3647
sI219
(dp3648
sI61
g3594
sI190
g3599
sI223
g3589
ssI76
(dp3649
I80
(dp3650
sI251
(dp3651
sI276
g3436
ssI290
(dp3652
I229
(dp3653
sI6
g3319
sI167
g3498
sI104
(dp3654
sI331
g3642
sI21
g3443
sI334
(dp3655
sI47
g3529
sI146
g3405
sI142
g3367
sI151
g3447
sI57
g3578
sI219
(dp3656
sI28
g3463
sI37
g3483
sI318
(dp3657
sI351
(dp3658
ssI206
(dp3659
I66
g3618
sI167
g3499
sI104
(dp3660
sI393
g3342
sI331
g3644
sI334
(dp3661
sI47
g3535
sI400
g3384
sI177
g3549
sI403
g3425
sI190
g3600
sI86
(dp3662
sI247
(dp3663
sI125
(dp3664
sI318
(dp3665
sI181
g3566
ssI11
(dp3666
I2
g3296
sI115
(dp3667
sI373
g3635
ssI338
(dp3668
I195
g3626
sI260
g3307
sI359
(dp3669
sI393
g3345
sI211
(dp3670
sI344
(dp3671
ssI211
(dp3672
I66
g3617
sI260
g3308
sI338
g3670
ssI334
(dp3673
I389
g3312
sI6
g3324
sI393
g3346
sI142
g3370
sI400
g3389
sI146
g3411
sI151
g3452
sI28
g3467
sI290
g3655
sI167
g3501
sI302
g3525
sI47
g3537
sI177
g3547
sI9
g3575
sI57
g3580
sI318
(dp3674
sI66
g3616
sI331
g3645
sI206
g3661
sI215
(dp3675
sI219
(dp3676
sI351
(dp3677
sI97
(dp3678
sI229
(dp3679
sI190
g3601
sI125
(dp3680
ssI86
(dp3681
I66
g3619
sI229
(dp3682
sI37
g3488
sI6
g3327
sI167
g3503
sI393
g3347
sI331
g3646
sI206
g3662
sI400
g3391
sI403
g3428
sI318
(dp3683
sI247
(dp3684
sI151
g3455
sI190
g3602
sI181
g3568
ssI215
(dp3685
I389
g3311
sI334
g3675
ssI344
(dp3686
I2
g3300
sI195
g3625
sI100
(dp3687
sI296
g3511
sI138
g3360
sI17
g3402
sI338
g3671
sI309
g3611
sI219
(dp3688
sI92
(dp3689
ssI100
(dp3690
I2
g3292
sI17
g3398
sI113
(dp3691
sI296
g3509
sI138
g3354
sI177
g3543
sI309
g3608
sI344
g3687
sI92
(dp3692
sI318
(dp3693
ssI219
(dp3694
I290
g3656
sI229
(dp3695
sI6
g3329
sI296
g3512
sI92
(dp3696
sI331
g3648
sI190
g3604
sI66
g3620
sI334
g3676
sI47
g3539
sI146
g3414
sI403
g3430
sI142
g3373
sI151
g3457
sI344
g3688
sI57
g3583
sI351
(dp3697
sI28
g3470
sI318
(dp3698
sI37
g3490
ssI92
(dp3699
I2
g3301
sI100
g3692
sI326
g3628
sI296
g3513
sI138
g3361
sI367
(dp3700
sI400
g3393
sI17
g3403
sI309
g3612
sI247
(dp3701
sI344
g3689
sI219
g3696
sI252
(dp3702
ssI351
(dp3703
I256
g3289
sI290
g3658
sI37
g3492
sI6
g3331
sI9
g3576
sI21
g3444
sI334
g3677
sI47
g3532
sI142
g3377
sI151
g3461
sI57
g3586
sI219
g3697
sI28
g3474
sI229
(dp3704
ssI379
(dp3705
I70
g3632
ssI97
(dp3706
I115
(dp3707
sI334
g3678
ssI187
(dp3708
I70
g3633
ssI356
(dp3709
I51
g3560
sI66
g3621
sI113
(dp3710
sI42
g3518
sI177
g3545
sI403
g3420
sI61
g3593
ssI229
(dp3711
I393
g3337
sI290
g3653
sI37
g3484
sI6
g3320
sI351
g3704
sI9
g3574
sI331
g3641
sI334
g3679
sI47
g3530
sI146
g3417
sI181
g3572
sI86
g3682
sI151
g3448
sI57
g3579
sI219
g3695
sI28
g3464
sI318
(dp3712
sI127
(dp3713
ssI359
(dp3714
I338
g3669
sI37
g3485
sI47
g3531
ssI104
(dp3715
I290
g3654
sI167
g3496
sI393
g3339
sI206
g3660
sI400
g3381
sI403
g3422
sI181
g3564
sI247
(dp3716
ssI80
(dp3717
I276
g3435
sI251
(dp3718
sI76
g3650
ssI236
(dp3719
I272
(dp3720
sI17
g3400
sI252
(dp3721
sI326
g3629
ssI272
(dp3722
I57
g3581
sI2
g3297
sI236
g3720
ssI367
(dp3723
I385
g3334
sI326
g3630
sI92
g3700
sI138
g3357
sI47
g3536
sI177
g3548
sI252
(dp3724
ssI113
(dp3725
I100
g3691
sI42
g3521
sI400
g3386
sI51
g3558
sI309
g3610
sI356
g3710
sI61
g3596
ssI115
(dp3726
I97
g3707
sI11
g3667
sI373
g3636
sI21
g3441
sI223
g3591
ssI318
(dp3727
I181
g3567
sI290
g3657
sI100
g3693
sI229
g3712
sI247
(dp3728
sI66
g3614
sI142
g3376
sI47
g3540
sI206
g3665
sI177
g3552
sI146
g3416
sI403
g3426
sI334
g3674
sI86
g3683
sI151
g3460
sI57
g3585
sI219
g3698
sI28
g3473
sI190
g3606
sI37
g3491
ssI247
(dp3729
I318
g3728
sI66
g3622
sI142
g3372
sI6
g3323
sI167
g3504
sI104
g3716
sI393
g3348
sI331
g3647
sI206
g3663
sI400
g3392
sI403
g3429
sI181
g3569
sI86
g3684
sI92
g3701
sI125
(dp3730
sI190
g3603
ssI120
(dp3731
I128
g3476
sI297
g3515
sI313
g3555
ssI251
(dp3732
I80
g3718
sI76
g3651
ssI252
(dp3733
I92
g3702
sI151
g3451
sI236
g3721
sI28
g3471
sI367
g3724
ssI125
(dp3734
I66
g3623
sI142
g3375
sI167
g3500
sI393
g3343
sI331
g3643
sI206
g3664
sI400
g3394
sI403
g3431
sI334
g3680
sI181
g3570
sI247
g3730
sI57
g3584
sI61
g3595
sI190
g3605
ssI127
(dp3735
I229
g3713
sI200
g3639
sI302
g3527
sI47
g3541
sI373
g3637
sI313
g3556
sssg143
(dp3736
sg145
g35
sg146
g3284
sbag1
(g2
g3
Ntp3737
Rp3738
(dp3739
g7
(dp3740
I128
(dp3741
sI385
(dp3742
sI34
(dp3743
sI6
(dp3744
sI207
(dp3745
sI264
(dp3746
sI393
(dp3747
sI394
(dp3748
sI142
(dp3749
sI143
(dp3750
sI400
(dp3751
sI146
(dp3752
sI403
(dp3753
sI404
(dp3754
sI21
(dp3755
sI151
(dp3756
sI152
(dp3757
sI28
(dp3758
sI29
(dp3759
sI286
(dp3760
sI290
(dp3761
sI37
(dp3762
sI38
(dp3763
sI167
(dp3764
sI168
(dp3765
sI297
(dp3766
sI42
(dp3767
sI47
(dp3768
sI177
(dp3769
sI51
(dp3770
sI181
(dp3771
sI182
(dp3772
sI9
(dp3773
sI313
(dp3774
sI187
(dp3775
sI61
(dp3776
sI318
(dp3777
sI319
(dp3778
sI66
(dp3779
sI195
(dp3780
sI326
(dp3781
sI70
(dp3782
sI331
(dp3783
sI332
(dp3784
sI162
(dp3785
sI334
(dp3786
sI190
(dp3787
sI211
(dp3788
sI206
(dp3789
sI86
(dp3790
sI57
(dp3791
sI219
(dp3792
sI93
(dp3793
sI352
(dp3794
sI272
(dp3795
sI67
(dp3796
sI356
(dp3797
sI229
(dp3798
sI236
(dp3799
sI191
(dp3800
sI367
(dp3801
sI113
(dp3802
sI339
(dp3803
sI373
(dp3804
sI247
(dp3805
sI120
(dp3806
sI379
(dp3807
sI252
(dp3808
sI125
(dp3809
ssg34
g35
sg36
g35
sg37
(dp3810
I128
(dp3811
I120
(dp3812
sI313
(dp3813
sI146
(dp3814
sI297
(dp3815
ssI385
(dp3816
I177
(dp3817
sI331
(dp3818
sI151
(dp3819
sI190
(dp3820
sI367
(dp3821
ssI34
(dp3822
I162
(dp3823
sI167
(dp3824
sI332
(dp3825
sI177
(dp3826
sI146
(dp3827
sI313
(dp3828
sI187
(dp3829
ssI6
(dp3830
I66
(dp3831
sI229
(dp3832
sI167
(dp3833
sI290
(dp3834
sI190
(dp3835
sI318
(dp3836
ssI207
(dp3837
I168
(dp3838
sI332
(dp3839
sI29
(dp3840
sI404
(dp3841
sI86
(dp3842
sI93
(dp3843
ssI264
(dp3844
I332
(dp3845
sI334
(dp3846
sI29
(dp3847
sI86
(dp3848
sI191
(dp3849
sI93
(dp3850
sI319
(dp3851
ssI393
(dp3852
I290
(dp3853
sI331
(dp3854
sI151
(dp3855
sI66
(dp3856
sI334
(dp3857
sI318
(dp3858
sI247
(dp3859
sI190
(dp3860
ssI394
(dp3861
I67
(dp3862
sI168
(dp3863
sI332
(dp3864
sI57
(dp3865
sI191
(dp3866
sI93
(dp3867
sI319
(dp3868
ssI142
(dp3869
I66
(dp3870
sI331
(dp3871
sI151
(dp3872
sI290
(dp3873
sI146
(dp3874
sI181
(dp3875
sI86
(dp3876
sI247
(dp3877
sI57
(dp3878
sI219
(dp3879
sI28
(dp3880
sI190
(dp3881
ssI143
(dp3882
I67
(dp3883
sI29
(dp3884
sI86
(dp3885
sI319
(dp3886
ssI400
(dp3887
I229
(dp3888
sI403
(dp3889
sI125
(dp3890
sI206
(dp3891
sI167
(dp3892
ssI146
(dp3893
I128
g3814
sI290
(dp3894
sI66
(dp3895
sI162
(dp3896
sI331
(dp3897
sI34
g3827
sI142
g3874
sI47
(dp3898
sI181
(dp3899
sI151
(dp3900
sI57
(dp3901
sI219
(dp3902
sI28
(dp3903
sI313
(dp3904
sI190
(dp3905
sI247
(dp3906
ssI403
(dp3907
I356
(dp3908
sI167
(dp3909
sI206
(dp3910
sI367
(dp3911
sI400
g3889
sI125
(dp3912
sI318
(dp3913
ssI404
(dp3914
I57
(dp3915
sI332
(dp3916
sI86
(dp3917
sI207
g3841
ssI21
(dp3918
I272
(dp3919
sI373
(dp3920
ssI151
(dp3921
I385
g3819
sI290
(dp3922
sI393
g3855
sI331
(dp3923
sI142
g3872
sI47
(dp3924
sI146
g3900
sI334
(dp3925
sI247
(dp3926
sI57
(dp3927
sI219
(dp3928
ssI152
(dp3929
I352
(dp3930
sI182
(dp3931
sI38
(dp3932
ssI28
(dp3933
I290
(dp3934
sI229
(dp3935
sI167
(dp3936
sI66
(dp3937
sI142
g3880
sI146
g3903
sI211
(dp3938
sI318
(dp3939
sI86
(dp3940
sI247
(dp3941
sI125
(dp3942
sI190
(dp3943
ssI29
(dp3944
I67
(dp3945
sI264
g3847
sI191
(dp3946
sI207
g3840
sI143
g3884
sI177
(dp3947
sI86
(dp3948
sI57
(dp3949
sI168
(dp3950
sI93
(dp3951
sI319
(dp3952
ssI286
(dp3953
I272
(dp3954
ssI290
(dp3955
I6
g3834
sI393
g3853
sI151
g3922
sI142
g3873
sI146
g3894
sI9
(dp3956
sI318
(dp3957
sI247
(dp3958
sI57
(dp3959
sI219
(dp3960
sI28
g3934
sI190
(dp3961
sI181
(dp3962
ssI37
(dp3963
I373
(dp3964
ssI38
(dp3965
I152
g3932
sI352
(dp3966
sI182
(dp3967
ssI167
(dp3968
I318
(dp3969
sI181
(dp3970
sI34
g3824
sI229
(dp3971
sI6
g3833
sI331
(dp3972
sI334
(dp3973
sI400
g3892
sI403
g3909
sI206
(dp3974
sI247
(dp3975
sI57
(dp3976
sI219
(dp3977
sI28
g3936
sI190
(dp3978
sI211
(dp3979
ssI168
(dp3980
I67
(dp3981
sI394
g3863
sI332
(dp3982
sI207
g3838
sI86
(dp3983
sI57
(dp3984
sI191
(dp3985
sI29
g3950
sI319
(dp3986
ssI297
(dp3987
I128
g3815
sI120
(dp3988
ssI42
(dp3989
I113
(dp3990
sI356
(dp3991
sI367
(dp3992
ssI47
(dp3993
I229
(dp3994
sI146
g3898
sI318
(dp3995
sI181
(dp3996
sI151
g3924
sI57
(dp3997
sI219
(dp3998
sI190
(dp3999
ssI177
(dp4000
I385
g3817
sI34
g3826
sI29
g3947
sI367
(dp4001
ssI51
(dp4002
I113
(dp4003
sI356
(dp4004
sI61
(dp4005
ssI181
(dp4006
I290
g3962
sI167
g3970
sI142
g3875
sI47
g3996
sI146
g3899
sI57
(dp4007
sI187
(dp4008
ssI182
(dp4009
I152
g3931
sI352
(dp4010
sI38
g3967
ssI9
(dp4011
I57
(dp4012
sI290
g3956
ssI313
(dp4013
I128
g3813
sI34
g3828
sI146
g3904
ssI187
(dp4014
I34
g3829
sI181
g4008
ssI61
(dp4015
I113
(dp4016
sI51
g4005
sI356
(dp4017
ssI318
(dp4018
I66
(dp4019
sI6
g3836
sI167
g3969
sI393
g3858
sI331
(dp4020
sI290
g3957
sI334
(dp4021
sI47
g3995
sI403
g3913
sI86
(dp4022
sI57
(dp4023
sI28
g3939
ssI319
(dp4024
I67
(dp4025
sI168
g3986
sI394
g3868
sI332
(dp4026
sI93
(dp4027
sI264
g3851
sI86
(dp4028
sI143
g3886
sI29
g3952
ssI66
(dp4029
I195
(dp4030
sI229
(dp4031
sI6
g3831
sI393
g3856
sI142
g3870
sI146
g3895
sI86
(dp4032
sI247
(dp4033
sI28
g3937
sI318
g4019
ssI195
(dp4034
I66
g4030
sI211
(dp4035
sI86
(dp4036
sI247
(dp4037
ssI326
(dp4038
I236
(dp4039
sI367
(dp4040
sI113
(dp4041
sI339
(dp4042
sI252
(dp4043
sI93
(dp4044
ssI70
(dp4045
I379
(dp4046
ssI331
(dp4047
I385
g3818
sI229
(dp4048
sI167
g3972
sI393
g3854
sI142
g3871
sI146
g3897
sI190
(dp4049
sI86
(dp4050
sI151
g3923
sI219
(dp4051
sI318
g4020
ssI332
(dp4052
I34
g3825
sI67
(dp4053
sI264
g3845
sI394
g3864
sI207
g3839
sI168
g3982
sI404
g3916
sI86
(dp4054
sI57
(dp4055
sI319
g4026
sI191
(dp4056
ssI162
(dp4057
I34
g3823
sI211
(dp4058
sI252
(dp4059
sI146
g3896
ssI334
(dp4060
I167
g3973
sI264
g3846
sI393
g3857
sI151
g3925
sI57
(dp4061
sI219
(dp4062
sI318
g4021
ssI190
(dp4063
I385
g3820
sI290
g3961
sI229
(dp4064
sI6
g3835
sI167
g3978
sI393
g3860
sI331
g4049
sI142
g3881
sI47
g3999
sI146
g3905
sI57
(dp4065
sI219
(dp4066
sI28
g3943
sI125
(dp4067
ssI211
(dp4068
I162
g4058
sI195
g4035
sI28
g3938
sI86
(dp4069
sI167
g3979
ssI206
(dp4070
I400
g3891
sI403
g3910
sI356
(dp4071
sI125
(dp4072
sI167
g3974
ssI86
(dp4073
I66
g4032
sI195
g4036
sI264
g3848
sI331
g4050
sI332
g4054
sI142
g3876
sI207
g3842
sI168
g3983
sI29
g3948
sI211
g4069
sI404
g3917
sI247
(dp4074
sI67
(dp4075
sI57
(dp4076
sI143
g3885
sI28
g3940
sI93
(dp4077
sI318
g4022
sI319
g4028
ssI57
(dp4078
I9
g4012
sI394
g3865
sI142
g3878
sI146
g3901
sI404
g3915
sI151
g3927
sI29
g3949
sI290
g3959
sI167
g3976
sI168
g3984
sI47
g3997
sI181
g4007
sI318
g4023
sI191
(dp4079
sI67
(dp4080
sI332
g4055
sI334
g4061
sI86
g4076
sI219
(dp4081
sI93
(dp4082
sI229
(dp4083
sI190
g4065
ssI219
(dp4084
I290
g3960
sI229
(dp4085
sI167
g3977
sI331
g4051
sI142
g3879
sI47
g3998
sI146
g3902
sI334
g4062
sI151
g3928
sI57
g4081
sI190
g4066
sI247
(dp4086
ssI93
(dp4087
I326
g4044
sI264
g3850
sI394
g3867
sI236
(dp4088
sI207
g3843
sI86
g4077
sI57
g4082
sI252
(dp4089
sI29
g3951
sI319
g4027
ssI352
(dp4090
I152
g3930
sI38
g3966
sI182
g4010
ssI272
(dp4091
I21
g3919
sI286
g3954
ssI67
(dp4092
I168
g3981
sI394
g3862
sI332
g4053
sI143
g3883
sI86
g4075
sI57
g4080
sI191
(dp4093
sI29
g3945
sI319
g4025
ssI356
(dp4094
I42
g3991
sI403
g3908
sI206
g4071
sI367
(dp4095
sI113
(dp4096
sI51
g4004
sI61
g4017
ssI229
(dp4097
I66
g4031
sI6
g3832
sI167
g3971
sI331
g4048
sI47
g3994
sI400
g3888
sI57
g4083
sI219
g4085
sI28
g3935
sI190
g4064
ssI236
(dp4098
I339
(dp4099
sI252
(dp4100
sI93
g4088
sI326
g4039
ssI191
(dp4101
I67
g4093
sI168
g3985
sI394
g3866
sI332
g4056
sI264
g3849
sI57
g4079
sI29
g3946
ssI367
(dp4102
I385
g3821
sI356
g4095
sI326
g4040
sI113
(dp4103
sI42
g3992
sI177
g4001
sI403
g3911
ssI113
(dp4104
I356
g4096
sI326
g4041
sI42
g3990
sI367
g4103
sI51
g4003
sI61
g4016
ssI339
(dp4105
I236
g4099
sI326
g4042
ssI373
(dp4106
I37
g3964
sI21
g3920
ssI247
(dp4107
I290
g3958
sI195
g4037
sI167
g3975
sI393
g3859
sI66
g4033
sI142
g3877
sI146
g3906
sI86
g4074
sI151
g3926
sI219
g4086
sI28
g3941
ssI120
(dp4108
I128
g3812
sI297
g3988
ssI379
(dp4109
I70
g4046
ssI252
(dp4110
I162
g4059
sI236
g4100
sI93
g4089
sI326
g4043
ssI125
(dp4111
I400
g3890
sI403
g3912
sI28
g3942
sI190
g4067
sI206
g4072
sssg143
(dp4112
sg145
g35
sg146
g3810
sbag1
(g2
g3
Ntp4113
Rp4114
(dp4115
g7
(dp4116
I30
(dp4117
sI129
(dp4118
sI3
(dp4119
sI390
(dp4120
sI385
(dp4121
sI264
(dp4122
sI273
(dp4123
sI394
(dp4124
sI139
(dp4125
sI12
(dp4126
sI397
(dp4127
sI143
(dp4128
sI272
(dp4129
sI280
(dp4130
sI18
(dp4131
sI147
(dp4132
sI404
(dp4133
sI277
(dp4134
sI407
(dp4135
sI152
(dp4136
sI26
(dp4137
sI29
(dp4138
sI286
(dp4139
sI287
(dp4140
sI38
(dp4141
sI168
(dp4142
sI220
(dp4143
sI42
(dp4144
sI171
(dp4145
sI257
(dp4146
sI303
(dp4147
sI48
(dp4148
sI306
(dp4149
sI51
(dp4150
sI158
(dp4151
sI182
(dp4152
sI57
(dp4153
sI61
(dp4154
sI191
(dp4155
sI224
(dp4156
sI67
(dp4157
sI196
(dp4158
sI70
(dp4159
sI201
(dp4160
sI74
(dp4161
sI332
(dp4162
sI77
(dp4163
sI207
(dp4164
sI83
(dp4165
sI212
(dp4166
sI86
(dp4167
sI377
(dp4168
sI216
(dp4169
sI348
(dp4170
sI93
(dp4171
sI352
(dp4172
sI379
(dp4173
sI356
(dp4174
sI101
(dp4175
sI195
(dp4176
sI231
(dp4177
sI360
(dp4178
sI236
(dp4179
sI238
(dp4180
sI367
(dp4181
sI113
(dp4182
sI243
(dp4183
sI116
(dp4184
sI373
(dp4185
sI268
(dp4186
sI121
(dp4187
sI319
(dp4188
sI253
(dp4189
sI21
(dp4190
ssg34
g35
sg36
g35
sg37
(dp4191
I30
(dp4192
I352
(dp4193
sI257
(dp4194
sI3
(dp4195
sI196
(dp4196
sI101
(dp4197
sI360
(dp4198
sI139
(dp4199
sI12
(dp4200
sI397
(dp4201
sI77
(dp4202
sI303
(dp4203
sI273
(dp4204
sI212
(dp4205
sI277
(dp4206
sI116
(dp4207
sI287
(dp4208
ssI129
(dp4209
I373
(dp4210
sI21
(dp4211
sI29
(dp4212
sI70
(dp4213
sI207
(dp4214
ssI3
(dp4215
I257
(dp4216
sI70
(dp4217
sI390
(dp4218
sI30
g4195
sI12
(dp4219
sI397
(dp4220
sI238
(dp4221
sI77
(dp4222
sI116
(dp4223
sI277
(dp4224
sI212
(dp4225
sI303
(dp4226
sI158
(dp4227
ssI390
(dp4228
I257
(dp4229
sI3
g4218
sI196
(dp4230
sI101
(dp4231
sI77
(dp4232
sI360
(dp4233
sI139
(dp4234
sI12
(dp4235
sI397
(dp4236
sI238
(dp4237
sI303
(dp4238
sI273
(dp4239
sI116
(dp4240
sI277
(dp4241
sI212
(dp4242
ssI385
(dp4243
I306
(dp4244
sI86
(dp4245
sI367
(dp4246
ssI264
(dp4247
I67
(dp4248
sI332
(dp4249
sI29
(dp4250
sI86
(dp4251
sI191
(dp4252
ssI273
(dp4253
I257
(dp4254
sI67
(dp4255
sI196
(dp4256
sI101
(dp4257
sI390
g4239
sI360
(dp4258
sI404
(dp4259
sI12
(dp4260
sI77
(dp4261
sI238
(dp4262
sI397
(dp4263
sI212
(dp4264
sI277
(dp4265
sI57
(dp4266
sI303
(dp4267
sI29
(dp4268
sI30
g4204
sI287
(dp4269
ssI394
(dp4270
I352
(dp4271
sI67
(dp4272
sI168
(dp4273
sI332
(dp4274
sI77
(dp4275
sI93
(dp4276
sI207
(dp4277
sI86
(dp4278
sI152
(dp4279
sI57
(dp4280
sI143
(dp4281
sI29
(dp4282
sI191
(dp4283
ssI139
(dp4284
I257
(dp4285
sI196
(dp4286
sI101
(dp4287
sI390
g4234
sI360
(dp4288
sI12
(dp4289
sI77
(dp4290
sI238
(dp4291
sI303
(dp4292
sI116
(dp4293
sI277
(dp4294
sI70
(dp4295
sI30
g4199
sI287
(dp4296
ssI12
(dp4297
I257
(dp4298
sI3
g4219
sI196
(dp4299
sI101
(dp4300
sI390
g4235
sI360
(dp4301
sI139
g4289
sI77
(dp4302
sI238
(dp4303
sI303
(dp4304
sI273
g4260
sI116
(dp4305
sI277
(dp4306
sI407
(dp4307
sI397
(dp4308
sI212
(dp4309
sI70
(dp4310
sI30
g4200
sI287
(dp4311
ssI397
(dp4312
I352
(dp4313
sI257
(dp4314
sI3
g4220
sI196
(dp4315
sI101
(dp4316
sI390
g4236
sI360
(dp4317
sI12
g4308
sI332
(dp4318
sI77
(dp4319
sI238
(dp4320
sI303
(dp4321
sI273
g4263
sI212
(dp4322
sI277
(dp4323
sI86
(dp4324
sI152
(dp4325
sI57
(dp4326
sI29
(dp4327
sI30
g4201
sI287
(dp4328
ssI143
(dp4329
I67
(dp4330
sI168
(dp4331
sI394
g4281
sI332
(dp4332
sI93
(dp4333
sI319
(dp4334
sI404
(dp4335
sI86
(dp4336
sI207
(dp4337
sI29
(dp4338
sI191
(dp4339
ssI272
(dp4340
I152
(dp4341
sI352
(dp4342
sI286
(dp4343
ssI280
(dp4344
I171
(dp4345
ssI18
(dp4346
I268
(dp4347
sI83
(dp4348
sI220
(dp4349
ssI147
(dp4350
I224
(dp4351
sI253
(dp4352
ssI404
(dp4353
I67
(dp4354
sI168
(dp4355
sI332
(dp4356
sI143
g4335
sI273
g4259
sI29
(dp4357
sI86
(dp4358
sI57
(dp4359
sI191
(dp4360
sI93
(dp4361
sI319
(dp4362
ssI277
(dp4363
I257
(dp4364
sI3
g4224
sI196
(dp4365
sI101
(dp4366
sI390
g4241
sI360
(dp4367
sI236
(dp4368
sI139
g4294
sI12
g4306
sI397
g4323
sI77
(dp4369
sI273
g4265
sI212
(dp4370
sI303
(dp4371
sI407
(dp4372
sI152
(dp4373
sI168
(dp4374
sI30
g4206
sI287
(dp4375
ssI407
(dp4376
I257
(dp4377
sI101
(dp4378
sI12
g4307
sI238
(dp4379
sI277
g4372
sI158
(dp4380
ssI152
(dp4381
I352
(dp4382
sI70
(dp4383
sI38
(dp4384
sI394
g4279
sI397
g4325
sI272
g4341
sI306
(dp4385
sI21
(dp4386
sI182
(dp4387
sI57
(dp4388
sI277
g4373
ssI26
(dp4389
I216
(dp4390
sI236
(dp4391
ssI29
(dp4392
I129
g4212
sI67
(dp4393
sI212
(dp4394
sI70
(dp4395
sI231
(dp4396
sI168
(dp4397
sI394
g4282
sI332
(dp4398
sI397
g4327
sI207
(dp4399
sI143
g4338
sI264
g4250
sI273
g4268
sI404
g4357
sI196
(dp4400
sI86
(dp4401
sI57
(dp4402
sI319
(dp4403
sI93
(dp4404
sI191
(dp4405
ssI286
(dp4406
I272
g4343
sI195
(dp4407
ssI287
(dp4408
I257
(dp4409
sI196
(dp4410
sI101
(dp4411
sI77
(dp4412
sI360
(dp4413
sI139
g4296
sI12
g4311
sI397
g4328
sI158
(dp4414
sI303
(dp4415
sI273
g4269
sI212
(dp4416
sI277
g4375
sI238
(dp4417
sI116
(dp4418
sI30
g4208
ssI38
(dp4419
I352
(dp4420
sI152
g4384
sI182
(dp4421
ssI168
(dp4422
I67
(dp4423
sI394
g4273
sI332
(dp4424
sI93
(dp4425
sI143
g4331
sI319
(dp4426
sI306
(dp4427
sI404
g4355
sI277
g4374
sI57
(dp4428
sI207
(dp4429
sI29
g4397
sI191
(dp4430
ssI220
(dp4431
I243
(dp4432
sI74
(dp4433
sI268
(dp4434
sI48
(dp4435
sI18
g4349
sI83
(dp4436
sI377
(dp4437
ssI42
(dp4438
I113
(dp4439
sI356
(dp4440
sI61
(dp4441
ssI171
(dp4442
I280
g4345
ssI257
(dp4443
I3
g4216
sI196
(dp4444
sI101
(dp4445
sI390
g4229
sI360
(dp4446
sI139
g4285
sI12
g4298
sI77
(dp4447
sI238
(dp4448
sI397
g4314
sI273
g4254
sI116
(dp4449
sI277
g4364
sI407
g4377
sI212
(dp4450
sI303
(dp4451
sI30
g4194
sI287
g4409
ssI303
(dp4452
I257
g4451
sI3
g4226
sI101
(dp4453
sI390
g4238
sI360
(dp4454
sI139
g4292
sI12
g4304
sI397
g4321
sI77
(dp4455
sI273
g4267
sI212
(dp4456
sI277
g4371
sI116
(dp4457
sI70
(dp4458
sI30
g4203
sI287
g4415
ssI48
(dp4459
I377
(dp4460
sI74
(dp4461
sI83
(dp4462
sI268
(dp4463
sI220
g4435
ssI306
(dp4464
I385
g4244
sI231
(dp4465
sI168
g4427
sI86
(dp4466
sI152
g4385
sI348
(dp4467
ssI51
(dp4468
I113
(dp4469
sI356
(dp4470
sI61
(dp4471
ssI158
(dp4472
I3
g4227
sI287
g4414
sI407
g4380
ssI182
(dp4473
I352
(dp4474
sI152
g4387
sI70
(dp4475
sI38
g4421
ssI57
(dp4476
I67
(dp4477
sI168
g4428
sI394
g4280
sI332
(dp4478
sI77
(dp4479
sI207
(dp4480
sI93
(dp4481
sI273
g4266
sI367
(dp4482
sI404
g4359
sI86
(dp4483
sI152
g4388
sI397
g4326
sI319
(dp4484
sI29
g4402
sI191
(dp4485
ssI61
(dp4486
I113
(dp4487
sI42
g4441
sI51
g4471
sI356
(dp4488
ssI191
(dp4489
I67
(dp4490
sI212
(dp4491
sI168
g4430
sI394
g4283
sI332
(dp4492
sI93
(dp4493
sI264
g4252
sI143
g4339
sI404
g4360
sI196
(dp4494
sI86
(dp4495
sI57
g4485
sI207
(dp4496
sI29
g4405
sI319
(dp4497
ssI224
(dp4498
I147
g4351
sI196
(dp4499
sI253
(dp4500
ssI67
(dp4501
I273
g4255
sI168
g4423
sI394
g4272
sI332
(dp4502
sI191
g4490
sI93
(dp4503
sI143
g4330
sI264
g4248
sI404
g4354
sI86
(dp4504
sI57
g4477
sI207
(dp4505
sI29
g4393
sI319
(dp4506
ssI196
(dp4507
I224
g4499
sI257
g4444
sI101
(dp4508
sI390
g4230
sI360
(dp4509
sI12
g4299
sI139
g4286
sI332
(dp4510
sI77
(dp4511
sI397
g4315
sI273
g4256
sI212
(dp4512
sI277
g4365
sI116
(dp4513
sI191
g4494
sI29
g4400
sI30
g4196
sI287
g4410
ssI70
(dp4514
I129
g4213
sI3
g4217
sI360
(dp4515
sI139
g4295
sI12
g4310
sI303
g4458
sI21
(dp4516
sI182
g4475
sI152
g4383
sI121
(dp4517
sI379
(dp4518
sI29
g4395
ssI201
(dp4519
I216
(dp4520
ssI74
(dp4521
I48
g4461
sI83
(dp4522
sI220
g4433
ssI332
(dp4523
I67
g4502
sI196
g4510
sI168
g4424
sI394
g4274
sI143
g4332
sI397
g4318
sI93
(dp4524
sI207
(dp4525
sI264
g4249
sI404
g4356
sI86
(dp4526
sI57
g4478
sI319
(dp4527
sI29
g4398
sI191
g4492
ssI77
(dp4528
I257
g4447
sI3
g4222
sI196
g4511
sI101
(dp4529
sI390
g4232
sI360
(dp4530
sI394
g4275
sI139
g4290
sI12
g4302
sI397
g4319
sI238
(dp4531
sI303
g4455
sI273
g4261
sI116
(dp4532
sI277
g4369
sI57
g4479
sI212
(dp4533
sI30
g4202
sI287
g4412
ssI207
(dp4534
I129
g4214
sI67
g4505
sI168
g4429
sI394
g4277
sI332
g4525
sI93
(dp4535
sI143
g4337
sI86
(dp4536
sI377
(dp4537
sI57
g4480
sI191
g4496
sI29
g4399
sI319
(dp4538
ssI83
(dp4539
I74
g4522
sI268
(dp4540
sI48
g4462
sI18
g4348
sI377
(dp4541
sI220
g4436
ssI212
(dp4542
I257
g4450
sI3
g4225
sI196
g4512
sI390
g4242
sI360
(dp4543
sI12
g4309
sI77
g4533
sI238
(dp4544
sI303
g4456
sI273
g4264
sI116
(dp4545
sI277
g4370
sI86
(dp4546
sI397
g4322
sI191
g4491
sI29
g4394
sI30
g4205
sI287
g4416
ssI86
(dp4547
I385
g4245
sI67
g4504
sI212
g4546
sI231
(dp4548
sI143
g4336
sI29
g4401
sI394
g4278
sI332
g4526
sI397
g4324
sI207
g4536
sI264
g4251
sI306
g4466
sI404
g4358
sI57
g4483
sI319
(dp4549
sI93
(dp4550
sI191
g4495
ssI377
(dp4551
I48
g4460
sI268
(dp4552
sI83
g4541
sI220
g4437
sI207
g4537
ssI216
(dp4553
I201
g4520
sI26
g4390
sI231
(dp4554
ssI348
(dp4555
I306
g4467
sI231
(dp4556
ssI93
(dp4557
I67
g4503
sI168
g4425
sI394
g4276
sI332
g4524
sI143
g4333
sI404
g4361
sI86
g4550
sI57
g4481
sI207
g4535
sI29
g4404
sI191
g4493
ssI352
(dp4558
I38
g4420
sI394
g4271
sI397
g4313
sI272
g4342
sI182
g4474
sI152
g4382
sI30
g4193
sI319
(dp4559
ssI379
(dp4560
I70
g4518
ssI356
(dp4561
I113
(dp4562
sI42
g4440
sI51
g4470
sI61
g4488
ssI101
(dp4563
I257
g4445
sI196
g4508
sI390
g4231
sI360
(dp4564
sI139
g4287
sI12
g4300
sI77
g4529
sI303
g4453
sI273
g4257
sI277
g4366
sI407
g4378
sI397
g4316
sI30
g4197
sI287
g4411
ssI195
(dp4565
I286
g4407
ssI231
(dp4566
I306
g4465
sI86
g4548
sI216
g4554
sI121
(dp4567
sI348
g4556
sI29
g4396
ssI360
(dp4568
I257
g4446
sI196
g4509
sI101
g4564
sI390
g4233
sI139
g4288
sI12
g4301
sI77
g4530
sI303
g4454
sI273
g4258
sI212
g4543
sI277
g4367
sI397
g4317
sI367
(dp4569
sI70
g4515
sI30
g4198
sI287
g4413
ssI236
(dp4570
I26
g4391
sI277
g4368
ssI238
(dp4571
I257
g4448
sI3
g4221
sI390
g4237
sI139
g4291
sI12
g4303
sI397
g4320
sI77
g4531
sI273
g4262
sI116
(dp4572
sI407
g4379
sI212
g4544
sI287
g4417
ssI367
(dp4573
I360
g4569
sI385
g4246
sI57
g4482
ssI113
(dp4574
I42
g4439
sI51
g4469
sI356
g4562
sI61
g4487
ssI243
(dp4575
I220
g4432
ssI116
(dp4576
I257
g4449
sI3
g4223
sI196
g4513
sI390
g4240
sI139
g4293
sI12
g4305
sI77
g4532
sI238
g4572
sI303
g4457
sI212
g4545
sI30
g4207
sI287
g4418
ssI373
(dp4577
I129
g4210
sI21
(dp4578
ssI268
(dp4579
I48
g4463
sI377
g4552
sI18
g4347
sI83
g4540
sI220
g4434
ssI121
(dp4580
I70
g4517
sI231
g4567
ssI319
(dp4581
I352
g4559
sI67
g4506
sI168
g4426
sI332
g4527
sI207
g4538
sI404
g4362
sI86
g4549
sI57
g4484
sI143
g4334
sI29
g4403
sI191
g4497
ssI253
(dp4582
I224
g4500
sI147
g4352
ssI21
(dp4583
I152
g4386
sI129
g4211
sI373
g4578
sI70
g4516
sssg143
(dp4584
sg145
g35
sg146
g4191
sbag1
(g2
g3
Ntp4585
Rp4586
(dp4587
g7
(dp4588
I257
(dp4589
sI3
(dp4590
sI390
(dp4591
sI129
(dp4592
sI264
(dp4593
sI394
(dp4594
sI139
(dp4595
sI268
(dp4596
sI397
(dp4597
sI143
(dp4598
sI201
(dp4599
sI273
(dp4600
sI18
(dp4601
sI147
(dp4602
sI404
(dp4603
sI277
(dp4604
sI407
(dp4605
sI280
(dp4606
sI26
(dp4607
sI29
(dp4608
sI30
(dp4609
sI287
(dp4610
sI168
(dp4611
sI348
(dp4612
sI298
(dp4613
sI171
(dp4614
sI303
(dp4615
sI48
(dp4616
sI306
(dp4617
sI52
(dp4618
sI158
(dp4619
sI183
(dp4620
sI57
(dp4621
sI61
(dp4622
sI191
(dp4623
sI67
(dp4624
sI196
(dp4625
sI197
(dp4626
sI70
(dp4627
sI12
(dp4628
sI74
(dp4629
sI332
(dp4630
sI77
(dp4631
sI207
(dp4632
sI83
(dp4633
sI212
(dp4634
sI86
(dp4635
sI121
(dp4636
sI216
(dp4637
sI220
(dp4638
sI93
(dp4639
sI357
(dp4640
sI224
(dp4641
sI379
(dp4642
sI101
(dp4643
sI231
(dp4644
sI360
(dp4645
sI105
(dp4646
sI238
(dp4647
sI113
(dp4648
sI243
(dp4649
sI116
(dp4650
sI373
(dp4651
sI377
(dp4652
sI319
(dp4653
sI253
(dp4654
sI21
(dp4655
ssg34
g35
sg36
g35
sg37
(dp4656
I257
(dp4657
I3
(dp4658
sI390
(dp4659
sI139
(dp4660
sI12
(dp4661
sI397
(dp4662
sI273
(dp4663
sI277
(dp4664
sI30
(dp4665
sI287
(dp4666
sI303
(dp4667
sI191
(dp4668
sI196
(dp4669
sI197
(dp4670
sI332
(dp4671
sI77
(dp4672
sI83
(dp4673
sI212
(dp4674
sI220
(dp4675
sI101
(dp4676
sI360
(dp4677
sI238
(dp4678
sI116
(dp4679
ssI3
(dp4680
I257
g4658
sI390
(dp4681
sI360
(dp4682
sI12
(dp4683
sI397
(dp4684
sI77
(dp4685
sI303
(dp4686
sI273
(dp4687
sI116
(dp4688
sI277
(dp4689
ssI390
(dp4690
I257
g4659
sI3
g4681
sI197
(dp4691
sI360
(dp4692
sI139
(dp4693
sI12
(dp4694
sI397
(dp4695
sI238
(dp4696
sI77
(dp4697
sI273
(dp4698
sI116
(dp4699
sI277
(dp4700
sI212
(dp4701
sI303
(dp4702
sI30
(dp4703
sI287
(dp4704
ssI129
(dp4705
I197
(dp4706
sI105
(dp4707
sI268
(dp4708
sI77
(dp4709
sI238
(dp4710
sI48
(dp4711
sI116
(dp4712
sI277
(dp4713
sI280
(dp4714
sI377
(dp4715
sI220
(dp4716
ssI264
(dp4717
I67
(dp4718
sI101
(dp4719
sI168
(dp4720
sI394
(dp4721
sI332
(dp4722
sI191
(dp4723
sI319
(dp4724
ssI394
(dp4725
I67
(dp4726
sI212
(dp4727
sI168
(dp4728
sI404
(dp4729
sI332
(dp4730
sI93
(dp4731
sI207
(dp4732
sI264
g4721
sI52
(dp4733
sI86
(dp4734
sI57
(dp4735
sI191
(dp4736
sI29
(dp4737
sI319
(dp4738
ssI139
(dp4739
I257
g4660
sI197
(dp4740
sI101
(dp4741
sI390
g4693
sI360
(dp4742
sI77
(dp4743
sI238
(dp4744
sI303
(dp4745
sI273
(dp4746
sI116
(dp4747
sI277
(dp4748
sI397
(dp4749
sI212
(dp4750
sI30
(dp4751
sI287
(dp4752
ssI268
(dp4753
I129
g4708
sI74
(dp4754
sI332
(dp4755
sI397
(dp4756
sI238
(dp4757
sI93
(dp4758
sI48
(dp4759
sI273
(dp4760
sI83
(dp4761
sI212
(dp4762
sI377
(dp4763
sI220
(dp4764
sI61
(dp4765
ssI397
(dp4766
I257
g4662
sI197
(dp4767
sI3
g4684
sI196
(dp4768
sI101
(dp4769
sI390
g4695
sI360
(dp4770
sI268
g4756
sI139
g4749
sI12
(dp4771
sI77
(dp4772
sI238
(dp4773
sI303
(dp4774
sI273
(dp4775
sI116
(dp4776
sI277
(dp4777
sI377
(dp4778
sI30
(dp4779
sI287
(dp4780
ssI143
(dp4781
I168
(dp4782
sI332
(dp4783
sI29
(dp4784
ssI201
(dp4785
I26
(dp4786
ssI273
(dp4787
I257
g4663
sI3
g4687
sI197
(dp4788
sI390
g4698
sI360
(dp4789
sI268
g4760
sI139
g4746
sI12
(dp4790
sI77
(dp4791
sI238
(dp4792
sI397
g4775
sI116
(dp4793
sI332
(dp4794
sI212
(dp4795
sI303
(dp4796
sI30
(dp4797
sI287
(dp4798
ssI18
(dp4799
I360
(dp4800
sI74
(dp4801
sI83
(dp4802
sI377
(dp4803
sI220
(dp4804
sI30
(dp4805
ssI147
(dp4806
I224
(dp4807
sI83
(dp4808
sI332
(dp4809
sI253
(dp4810
sI231
(dp4811
ssI404
(dp4812
I67
(dp4813
sI168
(dp4814
sI394
g4729
sI332
(dp4815
sI86
(dp4816
sI57
(dp4817
sI319
(dp4818
ssI277
(dp4819
I129
g4713
sI197
(dp4820
sI3
g4689
sI196
(dp4821
sI101
(dp4822
sI390
g4700
sI257
g4664
sI360
(dp4823
sI139
g4748
sI12
(dp4824
sI77
(dp4825
sI238
(dp4826
sI303
(dp4827
sI212
(dp4828
sI397
g4777
sI116
(dp4829
sI26
(dp4830
sI30
(dp4831
sI287
(dp4832
ssI407
(dp4833
I158
(dp4834
ssI280
(dp4835
I129
g4714
sI171
(dp4836
ssI26
(dp4837
I216
(dp4838
sI201
g4786
sI277
g4830
sI287
(dp4839
ssI29
(dp4840
I67
(dp4841
sI168
(dp4842
sI394
g4737
sI332
(dp4843
sI143
g4784
sI83
(dp4844
sI74
(dp4845
sI86
(dp4846
sI57
(dp4847
sI191
(dp4848
sI93
(dp4849
sI319
(dp4850
ssI30
(dp4851
I257
g4665
sI197
(dp4852
sI196
(dp4853
sI101
(dp4854
sI390
g4703
sI273
g4797
sI360
(dp4855
sI139
g4751
sI12
(dp4856
sI77
(dp4857
sI238
(dp4858
sI303
(dp4859
sI216
(dp4860
sI18
g4805
sI116
(dp4861
sI277
g4831
sI397
g4779
sI212
(dp4862
sI220
(dp4863
sI287
(dp4864
ssI287
(dp4865
I257
g4666
sI196
(dp4866
sI101
(dp4867
sI390
g4704
sI360
(dp4868
sI139
g4752
sI397
g4780
sI238
(dp4869
sI303
(dp4870
sI273
g4798
sI116
(dp4871
sI277
g4832
sI212
(dp4872
sI26
g4839
sI30
g4864
sI191
(dp4873
ssI168
(dp4874
I67
(dp4875
sI93
(dp4876
sI264
g4720
sI394
g4728
sI332
(dp4877
sI207
(dp4878
sI143
g4782
sI404
g4814
sI21
(dp4879
sI86
(dp4880
sI57
(dp4881
sI191
(dp4882
sI29
g4842
sI319
(dp4883
ssI348
(dp4884
I121
(dp4885
sI306
(dp4886
sI231
(dp4887
ssI298
(dp4888
I57
(dp4889
ssI171
(dp4890
I280
g4836
sI196
(dp4891
ssI303
(dp4892
I257
g4667
sI197
(dp4893
sI3
g4686
sI196
(dp4894
sI101
(dp4895
sI390
g4702
sI360
(dp4896
sI105
(dp4897
sI139
g4745
sI12
(dp4898
sI77
(dp4899
sI238
(dp4900
sI397
g4774
sI273
g4796
sI212
(dp4901
sI277
g4827
sI116
(dp4902
sI30
g4859
sI287
g4870
ssI48
(dp4903
I377
(dp4904
sI83
(dp4905
sI220
(dp4906
sI268
g4759
sI129
g4711
ssI306
(dp4907
I121
(dp4908
sI74
(dp4909
sI348
g4886
ssI52
(dp4910
I357
(dp4911
sI231
(dp4912
sI105
(dp4913
sI394
g4733
sI183
(dp4914
sI121
(dp4915
sI253
(dp4916
ssI158
(dp4917
I407
g4834
ssI183
(dp4918
I52
g4914
sI357
(dp4919
ssI57
(dp4920
I67
(dp4921
sI197
(dp4922
sI168
g4881
sI394
g4735
sI332
(dp4923
sI29
g4847
sI404
g4817
sI86
(dp4924
sI207
(dp4925
sI298
g4889
sI319
(dp4926
ssI61
(dp4927
I268
g4765
ssI191
(dp4928
I257
g4668
sI67
(dp4929
sI168
g4882
sI394
g4736
sI332
(dp4930
sI207
(dp4931
sI264
g4723
sI29
g4848
sI212
(dp4932
sI93
(dp4933
sI287
g4873
ssI67
(dp4934
I70
(dp4935
sI264
g4718
sI394
g4726
sI332
(dp4936
sI207
(dp4937
sI93
(dp4938
sI113
(dp4939
sI319
(dp4940
sI404
g4813
sI86
(dp4941
sI57
g4921
sI168
g4875
sI29
g4841
sI191
g4929
ssI196
(dp4942
I257
g4669
sI171
g4891
sI12
(dp4943
sI397
g4768
sI303
g4894
sI212
(dp4944
sI277
g4821
sI30
g4853
sI287
g4866
ssI197
(dp4945
I257
g4670
sI101
(dp4946
sI390
g4691
sI129
g4706
sI360
(dp4947
sI139
g4740
sI12
(dp4948
sI77
(dp4949
sI238
(dp4950
sI397
g4767
sI273
g4788
sI83
(dp4951
sI212
(dp4952
sI277
g4820
sI57
g4922
sI303
g4893
sI30
g4852
ssI70
(dp4953
I83
(dp4954
sI379
(dp4955
sI74
(dp4956
sI67
g4935
sI332
(dp4957
ssI12
(dp4958
I257
g4661
sI3
g4683
sI196
g4943
sI101
(dp4959
sI390
g4694
sI77
(dp4960
sI360
(dp4961
sI397
g4771
sI238
(dp4962
sI303
g4898
sI273
g4790
sI212
(dp4963
sI277
g4824
sI116
(dp4964
sI220
(dp4965
sI30
g4856
sI197
g4948
ssI74
(dp4966
I224
(dp4967
sI357
(dp4968
sI70
g4956
sI268
g4754
sI332
(dp4969
sI306
g4909
sI18
g4801
sI377
(dp4970
sI220
(dp4971
sI29
g4845
ssI332
(dp4972
I257
g4671
sI67
g4936
sI212
(dp4973
sI101
(dp4974
sI70
g4957
sI273
g4794
sI264
g4722
sI74
g4969
sI268
g4755
sI93
(dp4975
sI143
g4783
sI168
g4877
sI29
g4843
sI147
g4809
sI404
g4815
sI86
(dp4976
sI377
(dp4977
sI57
g4923
sI207
(dp4978
sI394
g4730
sI191
g4930
ssI77
(dp4979
I129
g4709
sI3
g4685
sI197
g4949
sI390
g4697
sI257
g4672
sI360
(dp4980
sI139
g4743
sI12
g4960
sI397
g4772
sI238
(dp4981
sI303
g4899
sI273
g4791
sI277
g4825
sI30
g4857
ssI207
(dp4982
I67
g4937
sI168
g4878
sI394
g4732
sI332
g4978
sI86
(dp4983
sI57
g4925
sI319
(dp4984
sI220
(dp4985
sI93
(dp4986
sI191
g4931
ssI83
(dp4987
I257
g4673
sI197
g4951
sI70
g4954
sI231
(dp4988
sI268
g4761
sI48
g4905
sI18
g4802
sI147
g4808
sI116
(dp4989
sI377
(dp4990
sI220
(dp4991
sI29
g4844
ssI212
(dp4992
I257
g4674
sI197
g4952
sI196
g4944
sI101
(dp4993
sI390
g4701
sI360
(dp4994
sI268
g4762
sI394
g4727
sI139
g4750
sI12
g4963
sI303
g4901
sI273
g4795
sI277
g4828
sI332
g4973
sI191
g4932
sI30
g4862
sI287
g4872
ssI86
(dp4995
I67
g4941
sI168
g4880
sI394
g4734
sI332
g4976
sI93
(dp4996
sI404
g4816
sI57
g4924
sI207
g4983
sI29
g4846
sI319
(dp4997
ssI121
(dp4998
I224
(dp4999
sI52
g4915
sI306
g4908
sI348
g4885
sI253
(dp5000
ssI216
(dp5001
I26
g4838
sI30
g4860
ssI220
(dp5002
I257
g4675
sI243
(dp5003
sI129
g4716
sI12
g4965
sI74
g4971
sI268
g4764
sI207
g4985
sI48
g4906
sI18
g4804
sI83
g4991
sI377
(dp5004
sI30
g4863
ssI93
(dp5005
I67
g4938
sI101
(dp5006
sI168
g4876
sI332
g4975
sI394
g4731
sI268
g4758
sI207
g4986
sI86
g4996
sI29
g4849
sI191
g4933
ssI357
(dp5007
I74
g4968
sI52
g4911
sI183
g4919
ssI224
(dp5008
I121
g4999
sI74
g4967
sI147
g4807
sI231
(dp5009
ssI379
(dp5010
I70
g4955
ssI101
(dp5011
I257
g4676
sI197
g4946
sI360
(dp5012
sI332
g4974
sI139
g4741
sI12
g4959
sI397
g4769
sI303
g4895
sI264
g4719
sI212
g4993
sI277
g4822
sI116
(dp5013
sI93
g5006
sI30
g4854
sI287
g4867
ssI231
(dp5014
I224
g5009
sI83
g4988
sI147
g4811
sI52
g4912
sI348
g4887
sI253
(dp5015
ssI360
(dp5016
I257
g4677
sI197
g4947
sI3
g4682
sI101
g5012
sI390
g4692
sI139
g4742
sI12
g4961
sI397
g4770
sI77
g4980
sI303
g4896
sI273
g4789
sI18
g4800
sI212
g4994
sI277
g4823
sI238
(dp5017
sI116
(dp5018
sI30
g4855
sI287
g4868
ssI105
(dp5019
I129
g4707
sI52
g4913
sI303
g4897
ssI238
(dp5020
I257
g4678
sI197
g4950
sI390
g4696
sI129
g4710
sI360
g5017
sI268
g4757
sI139
g4744
sI12
g4962
sI77
g4981
sI303
g4900
sI273
g4792
sI116
(dp5021
sI277
g4826
sI397
g4773
sI377
(dp5022
sI30
g4858
sI287
g4869
ssI113
(dp5023
I67
g4939
ssI243
(dp5024
I377
(dp5025
sI220
g5003
ssI116
(dp5026
I257
g4679
sI3
g4688
sI101
g5013
sI390
g4699
sI129
g4712
sI360
g5018
sI139
g4747
sI12
g4964
sI397
g4776
sI238
g5021
sI303
g4902
sI273
g4793
sI83
g4989
sI277
g4829
sI30
g4861
sI287
g4871
ssI373
(dp5027
I21
(dp5028
ssI377
(dp5029
I129
g4715
sI243
g5025
sI268
g4763
sI74
g4970
sI332
g4977
sI397
g4778
sI238
g5022
sI48
g4904
sI18
g4803
sI83
g4990
sI220
g5004
ssI319
(dp5030
I67
g4940
sI168
g4883
sI394
g4738
sI207
g4984
sI264
g4724
sI404
g4818
sI86
g4997
sI57
g4926
sI29
g4850
ssI253
(dp5031
I121
g5000
sI147
g4810
sI52
g4916
sI231
g5015
ssI21
(dp5032
I168
g4879
sI373
g5028
sssg143
(dp5033
sg145
g35
sg146
g4656
sbag1
(g2
g3
Ntp5034
Rp5035
(dp5036
g7
(dp5037
I257
(dp5038
sI3
(dp5039
sI390
(dp5040
sI7
(dp5041
sI264
(dp5042
sI394
(dp5043
sI139
(dp5044
sI12
(dp5045
sI397
(dp5046
sI143
(dp5047
sI273
(dp5048
sI18
(dp5049
sI404
(dp5050
sI277
(dp5051
sI407
(dp5052
sI280
(dp5053
sI281
(dp5054
sI29
(dp5055
sI30
(dp5056
sI287
(dp5057
sI129
(dp5058
sI168
(dp5059
sI303
(dp5060
sI48
(dp5061
sI52
(dp5062
sI158
(dp5063
sI310
(dp5064
sI183
(dp5065
sI57
(dp5066
sI319
(dp5067
sI320
(dp5068
sI67
(dp5069
sI197
(dp5070
sI268
(dp5071
sI74
(dp5072
sI332
(dp5073
sI77
(dp5074
sI78
(dp5075
sI207
(dp5076
sI83
(dp5077
sI212
(dp5078
sI86
(dp5079
sI345
(dp5080
sI335
(dp5081
sI220
(dp5082
sI93
(dp5083
sI357
(dp5084
sI98
(dp5085
sI101
(dp5086
sI360
(dp5087
sI105
(dp5088
sI238
(dp5089
sI243
(dp5090
sI116
(dp5091
sI373
(dp5092
sI377
(dp5093
sI250
(dp5094
sI191
(dp5095
sI21
(dp5096
ssg34
g35
sg36
g35
sg37
(dp5097
I257
(dp5098
I67
(dp5099
sI101
(dp5100
sI168
(dp5101
sI394
(dp5102
sI404
(dp5103
sI277
(dp5104
sI116
(dp5105
sI287
(dp5106
sI191
(dp5107
ssI3
(dp5108
I394
(dp5109
sI12
(dp5110
sI77
(dp5111
sI93
(dp5112
sI207
(dp5113
sI273
(dp5114
sI116
(dp5115
sI397
(dp5116
sI303
(dp5117
sI29
(dp5118
sI191
(dp5119
ssI390
(dp5120
I168
(dp5121
sI143
(dp5122
sI93
(dp5123
sI287
(dp5124
sI319
(dp5125
sI29
(dp5126
sI191
(dp5127
ssI7
(dp5128
I345
(dp5129
sI98
(dp5130
sI310
(dp5131
ssI264
(dp5132
I168
(dp5133
sI67
(dp5134
sI332
(dp5135
sI30
(dp5136
ssI394
(dp5137
I257
g5102
sI67
(dp5138
sI212
(dp5139
sI101
(dp5140
sI168
(dp5141
sI332
(dp5142
sI77
(dp5143
sI238
(dp5144
sI303
(dp5145
sI273
(dp5146
sI3
g5109
sI404
(dp5147
sI277
(dp5148
sI280
(dp5149
sI57
(dp5150
sI93
(dp5151
sI30
(dp5152
sI319
(dp5153
ssI139
(dp5154
I197
(dp5155
sI101
(dp5156
sI168
(dp5157
sI332
(dp5158
sI77
(dp5159
sI303
(dp5160
sI319
(dp5161
sI212
(dp5162
sI277
(dp5163
sI86
(dp5164
sI281
(dp5165
sI191
(dp5166
sI30
(dp5167
sI287
(dp5168
ssI12
(dp5169
I3
g5110
sI397
(dp5170
sI238
(dp5171
sI273
(dp5172
sI116
(dp5173
sI319
(dp5174
sI191
(dp5175
ssI397
(dp5176
I3
g5116
sI101
(dp5177
sI168
(dp5178
sI12
g5170
sI77
(dp5179
sI238
(dp5180
sI143
(dp5181
sI360
(dp5182
sI67
(dp5183
sI212
(dp5184
sI277
(dp5185
sI281
(dp5186
sI207
(dp5187
sI93
(dp5188
sI30
(dp5189
sI319
(dp5190
ssI143
(dp5191
I390
g5122
sI397
g5181
sI238
(dp5192
sI207
(dp5193
sI212
(dp5194
sI277
(dp5195
sI303
(dp5196
sI29
(dp5197
sI191
(dp5198
ssI273
(dp5199
I3
g5114
sI394
g5146
sI12
g5172
sI303
(dp5200
sI67
(dp5201
sI404
(dp5202
sI277
(dp5203
sI93
(dp5204
ssI18
(dp5205
I48
(dp5206
sI377
(dp5207
sI250
(dp5208
sI268
(dp5209
ssI404
(dp5210
I257
g5103
sI168
(dp5211
sI394
g5147
sI332
(dp5212
sI238
(dp5213
sI93
(dp5214
sI273
g5202
sI277
(dp5215
sI86
(dp5216
sI29
(dp5217
sI30
(dp5218
ssI277
(dp5219
I257
g5104
sI67
(dp5220
sI197
(dp5221
sI360
(dp5222
sI394
g5148
sI139
g5163
sI332
(dp5223
sI77
(dp5224
sI238
(dp5225
sI397
g5185
sI273
g5203
sI404
g5215
sI212
(dp5226
sI57
(dp5227
sI143
g5195
sI30
(dp5228
sI319
(dp5229
ssI407
(dp5230
I98
(dp5231
sI74
(dp5232
sI158
(dp5233
sI357
(dp5234
ssI280
(dp5235
I394
g5149
ssI281
(dp5236
I129
(dp5237
sI139
g5165
sI397
g5186
sI48
(dp5238
sI83
(dp5239
sI250
(dp5240
ssI29
(dp5241
I3
g5118
sI101
(dp5242
sI390
g5126
sI168
(dp5243
sI207
(dp5244
sI143
g5197
sI287
(dp5245
sI404
g5217
sI303
(dp5246
sI93
(dp5247
sI319
(dp5248
ssI30
(dp5249
I197
(dp5250
sI264
g5136
sI394
g5152
sI139
g5167
sI332
(dp5251
sI397
g5189
sI77
(dp5252
sI207
(dp5253
sI238
(dp5254
sI404
g5218
sI212
(dp5255
sI277
g5228
sI57
(dp5256
sI191
(dp5257
sI93
(dp5258
sI319
(dp5259
ssI287
(dp5260
I257
g5106
sI67
(dp5261
sI101
(dp5262
sI390
g5124
sI360
(dp5263
sI139
g5168
sI29
g5245
sI168
(dp5264
sI212
(dp5265
sI93
(dp5266
sI197
(dp5267
ssI129
(dp5268
I281
g5237
sI98
(dp5269
sI78
(dp5270
sI345
(dp5271
ssI168
(dp5272
I257
g5101
sI67
(dp5273
sI212
(dp5274
sI390
g5121
sI360
(dp5275
sI394
g5141
sI139
g5157
sI332
(dp5276
sI397
g5178
sI238
(dp5277
sI93
(dp5278
sI264
g5133
sI404
g5211
sI116
(dp5279
sI57
(dp5280
sI287
g5264
sI29
g5243
sI319
(dp5281
ssI303
(dp5282
I3
g5117
sI394
g5145
sI139
g5160
sI332
(dp5283
sI143
g5196
sI273
g5200
sI29
g5246
sI319
(dp5284
ssI48
(dp5285
I98
(dp5286
sI74
(dp5287
sI268
(dp5288
sI18
g5206
sI243
(dp5289
sI310
(dp5290
sI281
g5238
sI220
(dp5291
ssI52
(dp5292
I250
(dp5293
sI183
(dp5294
ssI158
(dp5295
I74
(dp5296
sI357
(dp5297
sI407
g5233
ssI310
(dp5298
I48
g5290
sI345
(dp5299
sI98
(dp5300
sI7
g5131
ssI183
(dp5301
I105
(dp5302
sI52
g5294
ssI57
(dp5303
I360
(dp5304
sI394
g5150
sI332
(dp5305
sI77
(dp5306
sI168
g5280
sI212
(dp5307
sI277
g5227
sI30
g5256
sI191
(dp5308
ssI319
(dp5309
I197
(dp5310
sI390
g5125
sI168
g5281
sI332
(dp5311
sI394
g5153
sI139
g5161
sI12
g5174
sI397
g5190
sI303
g5284
sI212
(dp5312
sI277
g5229
sI207
(dp5313
sI29
g5248
sI30
g5259
sI101
(dp5314
ssI320
(dp5315
I332
(dp5316
sI78
(dp5317
ssI67
(dp5318
I257
g5099
sI197
(dp5319
sI264
g5134
sI394
g5138
sI332
(dp5320
sI397
g5183
sI238
(dp5321
sI273
g5201
sI212
(dp5322
sI277
g5220
sI116
(dp5323
sI168
g5273
sI101
(dp5324
sI93
(dp5325
sI287
g5261
ssI197
(dp5326
I67
g5319
sI360
(dp5327
sI139
g5155
sI332
(dp5328
sI191
(dp5329
sI212
(dp5330
sI277
g5221
sI287
g5267
sI93
(dp5331
sI30
g5250
sI319
g5310
ssI268
(dp5332
I83
(dp5333
sI74
(dp5334
sI335
(dp5335
sI48
g5288
sI18
g5209
sI243
(dp5336
sI377
(dp5337
sI250
(dp5338
sI220
(dp5339
ssI74
(dp5340
I357
(dp5341
sI105
(dp5342
sI268
g5334
sI48
g5287
sI407
g5232
sI377
(dp5343
sI220
(dp5344
sI158
g5296
ssI332
(dp5345
I320
g5316
sI98
(dp5346
sI67
g5320
sI197
g5328
sI264
g5135
sI394
g5142
sI139
g5158
sI77
(dp5347
sI78
(dp5348
sI303
g5283
sI168
g5276
sI404
g5212
sI277
g5223
sI86
(dp5349
sI57
g5305
sI319
g5311
sI93
(dp5350
sI30
g5251
sI191
(dp5351
ssI77
(dp5352
I3
g5111
sI101
(dp5353
sI360
(dp5354
sI394
g5143
sI139
g5159
sI332
g5347
sI397
g5179
sI207
(dp5355
sI116
(dp5356
sI277
g5224
sI86
(dp5357
sI57
g5306
sI335
(dp5358
sI93
(dp5359
sI30
g5252
ssI78
(dp5360
I320
g5317
sI129
g5270
sI332
g5348
ssI207
(dp5361
I3
g5113
sI360
(dp5362
sI397
g5187
sI77
g5355
sI143
g5193
sI238
(dp5363
sI86
(dp5364
sI191
(dp5365
sI29
g5244
sI30
g5253
sI319
g5313
ssI83
(dp5366
I281
g5239
sI268
g5333
sI377
(dp5367
ssI212
(dp5368
I197
g5330
sI67
g5322
sI101
(dp5369
sI360
(dp5370
sI394
g5139
sI139
g5162
sI191
(dp5371
sI143
g5194
sI168
g5274
sI277
g5226
sI86
(dp5372
sI397
g5184
sI57
g5307
sI287
g5265
sI30
g5255
sI319
g5312
ssI86
(dp5373
I360
(dp5374
sI139
g5164
sI332
g5349
sI77
g5357
sI335
(dp5375
sI212
g5372
sI404
g5216
sI207
g5364
sI93
(dp5376
sI191
(dp5377
ssI345
(dp5378
I129
g5271
sI98
(dp5379
sI357
(dp5380
sI7
g5129
sI373
(dp5381
sI310
g5299
sI377
(dp5382
sI250
(dp5383
ssI335
(dp5384
I377
(dp5385
sI268
g5335
sI77
g5358
sI86
g5375
ssI220
(dp5386
I74
g5344
sI268
g5339
sI48
g5291
sI243
(dp5387
sI377
(dp5388
sI250
(dp5389
ssI93
(dp5390
I360
(dp5391
sI67
g5325
sI197
g5331
sI390
g5123
sI168
g5278
sI394
g5151
sI332
g5350
sI77
g5359
sI238
(dp5392
sI397
g5188
sI273
g5204
sI3
g5112
sI404
g5214
sI86
g5376
sI287
g5266
sI29
g5247
sI30
g5258
sI191
(dp5393
ssI357
(dp5394
I345
g5380
sI250
(dp5395
sI74
g5341
sI158
g5297
sI407
g5234
ssI98
(dp5396
I129
g5269
sI7
g5130
sI332
g5346
sI48
g5286
sI373
(dp5397
sI310
g5300
sI407
g5231
sI345
g5379
ssI101
(dp5398
I257
g5100
sI67
g5324
sI360
(dp5399
sI394
g5140
sI139
g5156
sI77
g5353
sI397
g5177
sI212
g5369
sI116
(dp5400
sI319
g5314
sI29
g5242
sI287
g5262
ssI360
(dp5401
I116
(dp5402
sI197
g5327
sI168
g5275
sI77
g5354
sI238
(dp5403
sI397
g5182
sI212
g5370
sI277
g5222
sI86
g5374
sI57
g5304
sI207
g5362
sI101
g5399
sI93
g5391
sI287
g5263
ssI105
(dp5404
I74
g5342
sI183
g5302
ssI238
(dp5405
I67
g5321
sI168
g5277
sI394
g5144
sI12
g5171
sI397
g5180
sI143
g5192
sI360
g5403
sI404
g5213
sI277
g5225
sI207
g5363
sI93
g5392
sI30
g5254
ssI243
(dp5406
I48
g5289
sI377
(dp5407
sI250
(dp5408
sI220
g5387
sI268
g5336
ssI116
(dp5409
I257
g5105
sI67
g5323
sI101
g5400
sI168
g5279
sI12
g5173
sI77
g5356
sI360
g5402
sI3
g5115
ssI373
(dp5410
I345
g5381
sI98
g5397
sI21
(dp5411
ssI377
(dp5412
I83
g5367
sI74
g5343
sI268
g5337
sI335
g5385
sI18
g5207
sI243
g5407
sI345
g5382
sI250
(dp5413
sI220
g5388
ssI250
(dp5414
I357
g5395
sI268
g5338
sI18
g5208
sI243
g5408
sI52
g5293
sI281
g5240
sI345
g5383
sI220
g5389
sI377
g5413
ssI191
(dp5415
I257
g5107
sI3
g5119
sI197
g5329
sI390
g5127
sI12
g5175
sI139
g5166
sI332
g5351
sI207
g5365
sI212
g5371
sI86
g5377
sI57
g5308
sI143
g5198
sI93
g5393
sI30
g5257
ssI21
(dp5416
I373
g5411
sssg143
(dp5417
sg145
g35
sg146
g5097
sbag1
(g2
g3
Ntp5418
Rp5419
(dp5420
g7
(dp5421
I129
(dp5422
sI386
(dp5423
sI299
(dp5424
sI261
(dp5425
sI135
(dp5426
sI265
(dp5427
sI269
(dp5428
sI401
(dp5429
sI274
(dp5430
sI21
(dp5431
sI408
(dp5432
sI153
(dp5433
sI282
(dp5434
sI159
(dp5435
sI35
(dp5436
sI163
(dp5437
sI39
(dp5438
sI71
(dp5439
sI172
(dp5440
sI178
(dp5441
sI307
(dp5442
sI184
(dp5443
sI314
(dp5444
sI188
(dp5445
sI62
(dp5446
sI320
(dp5447
sI198
(dp5448
sI327
(dp5449
sI75
(dp5450
sI332
(dp5451
sI78
(dp5452
sI13
(dp5453
sI291
(dp5454
sI213
(dp5455
sI43
(dp5456
sI217
(dp5457
sI349
(dp5458
sI391
(dp5459
sI363
(dp5460
sI239
(dp5461
sI368
(dp5462
sI373
(dp5463
sI122
(dp5464
sI380
(dp5465
sI126
(dp5466
sI405
(dp5467
ssg34
g35
sg36
g35
sg37
(dp5468
I129
(dp5469
I35
(dp5470
sI178
(dp5471
sI291
(dp5472
sI261
(dp5473
ssI386
(dp5474
I78
(dp5475
ssI299
(dp5476
I39
(dp5477
sI135
(dp5478
sI13
(dp5479
sI368
(dp5480
sI217
(dp5481
sI153
(dp5482
sI122
(dp5483
sI349
(dp5484
ssI261
(dp5485
I291
(dp5486
sI163
(dp5487
sI21
(dp5488
sI126
(dp5489
sI129
g5473
ssI135
(dp5490
I299
g5478
sI198
(dp5491
sI391
(dp5492
sI43
(dp5493
sI172
(dp5494
sI274
(dp5495
sI307
(dp5496
sI213
(dp5497
sI217
(dp5498
sI282
(dp5499
sI405
(dp5500
ssI265
(dp5501
I172
(dp5502
sI213
(dp5503
ssI269
(dp5504
I35
(dp5505
sI163
(dp5506
sI21
(dp5507
sI408
(dp5508
sI282
(dp5509
sI159
(dp5510
ssI401
(dp5511
I291
(dp5512
sI163
(dp5513
sI327
(dp5514
sI178
(dp5515
sI35
(dp5516
sI408
(dp5517
sI159
(dp5518
ssI274
(dp5519
I391
(dp5520
sI198
(dp5521
sI135
g5495
sI188
(dp5522
sI43
(dp5523
sI282
(dp5524
sI380
(dp5525
sI62
(dp5526
ssI21
(dp5527
I261
g5488
sI269
g5507
sI408
(dp5528
sI178
(dp5529
sI373
(dp5530
sI184
(dp5531
sI126
(dp5532
sI159
(dp5533
ssI408
(dp5534
I198
(dp5535
sI75
(dp5536
sI269
g5508
sI401
g5517
sI21
g5528
sI184
(dp5537
sI159
(dp5538
ssI153
(dp5539
I39
(dp5540
sI299
g5482
sI373
(dp5541
sI122
(dp5542
sI349
(dp5543
sI62
(dp5544
ssI282
(dp5545
I198
(dp5546
sI391
(dp5547
sI380
(dp5548
sI43
(dp5549
sI172
(dp5550
sI269
g5509
sI274
g5524
sI213
(dp5551
sI217
(dp5552
sI135
g5499
ssI159
(dp5553
I401
g5518
sI75
(dp5554
sI269
g5510
sI184
(dp5555
sI21
g5533
sI408
g5538
ssI35
(dp5556
I129
g5470
sI163
(dp5557
sI327
(dp5558
sI269
g5505
sI401
g5516
sI178
(dp5559
sI291
(dp5560
sI62
(dp5561
sI126
(dp5562
ssI163
(dp5563
I35
g5557
sI261
g5487
sI327
(dp5564
sI269
g5506
sI401
g5513
sI178
(dp5565
ssI39
(dp5566
I153
g5540
sI122
(dp5567
sI299
g5477
sI349
(dp5568
sI71
(dp5569
ssI71
(dp5570
I368
(dp5571
sI122
(dp5572
sI349
(dp5573
sI39
g5569
ssI172
(dp5574
I198
(dp5575
sI135
g5494
sI265
g5502
sI239
(dp5576
sI213
(dp5577
sI217
(dp5578
sI282
g5550
sI405
(dp5579
ssI178
(dp5580
I129
g5471
sI35
g5559
sI327
(dp5581
sI401
g5515
sI163
g5565
sI21
g5529
sI122
(dp5582
sI373
(dp5583
ssI307
(dp5584
I217
(dp5585
sI43
(dp5586
sI135
g5496
ssI184
(dp5587
I408
g5537
sI75
(dp5588
sI13
(dp5589
sI21
g5531
sI159
g5555
ssI314
(dp5590
I363
(dp5591
ssI188
(dp5592
I198
(dp5593
sI274
g5522
sI291
(dp5594
sI78
(dp5595
sI126
(dp5596
ssI62
(dp5597
I153
g5544
sI274
g5526
sI35
g5561
ssI320
(dp5598
I332
(dp5599
sI78
(dp5600
sI391
(dp5601
ssI198
(dp5602
I135
g5491
sI43
(dp5603
sI172
g5575
sI239
(dp5604
sI274
g5521
sI405
(dp5605
sI408
g5535
sI217
(dp5606
sI282
g5546
sI188
g5593
sI213
(dp5607
ssI327
(dp5608
I35
g5558
sI178
g5581
sI163
g5564
sI291
(dp5609
sI401
g5514
ssI75
(dp5610
I184
g5588
sI408
g5536
sI159
g5554
sI13
(dp5611
sI391
(dp5612
ssI332
(dp5613
I320
g5599
sI78
(dp5614
ssI78
(dp5615
I320
g5600
sI188
g5595
sI386
g5475
sI291
(dp5616
sI332
g5614
ssI13
(dp5617
I368
(dp5618
sI184
g5589
sI75
g5611
sI299
g5479
ssI291
(dp5619
I129
g5472
sI35
g5560
sI261
g5486
sI327
g5609
sI78
g5616
sI401
g5512
sI188
g5594
sI126
(dp5620
ssI213
(dp5621
I198
g5607
sI391
(dp5622
sI265
g5503
sI43
(dp5623
sI172
g5577
sI239
(dp5624
sI405
(dp5625
sI217
(dp5626
sI282
g5551
sI135
g5497
ssI43
(dp5627
I198
g5603
sI135
g5493
sI391
(dp5628
sI274
g5523
sI307
g5586
sI405
(dp5629
sI217
(dp5630
sI282
g5549
sI380
(dp5631
sI213
g5623
ssI217
(dp5632
I299
g5481
sI391
(dp5633
sI198
g5606
sI135
g5498
sI43
g5630
sI172
g5578
sI239
(dp5634
sI307
g5585
sI213
g5626
sI282
g5552
ssI349
(dp5635
I71
g5573
sI39
g5568
sI299
g5484
sI368
(dp5636
sI153
g5543
sI122
(dp5637
ssI391
(dp5638
I320
g5601
sI75
g5612
sI135
g5492
sI43
g5628
sI274
g5520
sI213
g5622
sI217
g5633
sI282
g5547
sI380
(dp5639
ssI363
(dp5640
I314
g5591
ssI239
(dp5641
I217
g5634
sI172
g5576
sI405
(dp5642
sI198
g5604
sI213
g5624
ssI368
(dp5643
I122
(dp5644
sI299
g5480
sI13
g5618
sI349
g5636
sI71
g5571
ssI373
(dp5645
I153
g5541
sI178
g5583
sI21
g5530
ssI122
(dp5646
I39
g5567
sI299
g5483
sI368
g5644
sI178
g5582
sI153
g5542
sI71
g5572
sI349
g5637
ssI380
(dp5647
I274
g5525
sI43
g5631
sI282
g5548
sI391
g5639
ssI126
(dp5648
I291
g5620
sI35
g5562
sI188
g5596
sI261
g5489
sI21
g5532
ssI405
(dp5649
I198
g5605
sI135
g5500
sI43
g5629
sI172
g5579
sI239
g5642
sI213
g5625
sssg143
(dp5650
sg145
g35
sg146
g5468
sbag1
(g2
g3
Ntp5651
Rp5652
(dp5653
g7
(dp5654
I129
(dp5655
sI386
(dp5656
sI299
(dp5657
sI261
(dp5658
sI391
(dp5659
sI265
(dp5660
sI192
(dp5661
sI269
(dp5662
sI401
(dp5663
sI274
(dp5664
sI405
(dp5665
sI408
(dp5666
sI153
(dp5667
sI282
(dp5668
sI26
(dp5669
sI159
(dp5670
sI35
(dp5671
sI292
(dp5672
sI39
(dp5673
sI43
(dp5674
sI172
(dp5675
sI178
(dp5676
sI307
(dp5677
sI184
(dp5678
sI314
(dp5679
sI62
(dp5680
sI320
(dp5681
sI198
(dp5682
sI327
(dp5683
sI202
(dp5684
sI75
(dp5685
sI78
(dp5686
sI13
(dp5687
sI353
(dp5688
sI163
(dp5689
sI213
(dp5690
sI87
(dp5691
sI217
(dp5692
sI71
(dp5693
sI135
(dp5694
sI349
(dp5695
sI225
(dp5696
sI232
(dp5697
sI363
(dp5698
sI239
(dp5699
sI368
(dp5700
sI117
(dp5701
sI122
(dp5702
sI380
(dp5703
sI126
(dp5704
sI21
(dp5705
ssg34
g35
sg36
g35
sg37
(dp5706
I129
(dp5707
I299
(dp5708
sI292
(dp5709
sI198
(dp5710
sI391
(dp5711
sI122
(dp5712
sI43
(dp5713
sI239
(dp5714
sI274
(dp5715
sI307
(dp5716
sI213
(dp5717
sI87
(dp5718
sI217
(dp5719
sI282
(dp5720
sI135
(dp5721
sI349
(dp5722
sI405
(dp5723
ssI386
(dp5724
I363
(dp5725
sI292
(dp5726
sI13
(dp5727
ssI299
(dp5728
I129
g5708
sI71
(dp5729
sI39
(dp5730
sI368
(dp5731
sI184
(dp5732
sI153
(dp5733
sI122
(dp5734
sI135
(dp5735
sI349
(dp5736
ssI261
(dp5737
I26
(dp5738
sI13
(dp5739
sI126
(dp5740
ssI391
(dp5741
I129
g5711
sI198
(dp5742
sI135
(dp5743
sI265
(dp5744
sI43
(dp5745
sI239
(dp5746
sI274
(dp5747
sI405
(dp5748
sI217
(dp5749
sI282
(dp5750
sI380
(dp5751
sI122
(dp5752
sI213
(dp5753
ssI265
(dp5754
I43
(dp5755
sI217
(dp5756
sI135
(dp5757
sI198
(dp5758
sI391
g5744
ssI192
(dp5759
I26
(dp5760
ssI269
(dp5761
I327
(dp5762
sI75
(dp5763
sI13
(dp5764
sI401
(dp5765
sI21
(dp5766
sI408
(dp5767
sI217
(dp5768
sI184
(dp5769
sI126
(dp5770
sI159
(dp5771
ssI401
(dp5772
I320
(dp5773
sI35
(dp5774
sI327
(dp5775
sI269
g5765
sI178
(dp5776
sI163
(dp5777
sI21
(dp5778
ssI274
(dp5779
I129
g5715
sI198
(dp5780
sI391
g5747
sI43
(dp5781
sI172
(dp5782
sI239
(dp5783
sI405
(dp5784
sI217
(dp5785
sI282
(dp5786
sI135
(dp5787
sI122
(dp5788
sI213
(dp5789
ssI405
(dp5790
I129
g5723
sI75
(dp5791
sI198
(dp5792
sI135
(dp5793
sI391
g5748
sI172
(dp5794
sI43
(dp5795
sI274
g5784
sI307
(dp5796
sI213
(dp5797
sI217
(dp5798
sI282
(dp5799
sI380
(dp5800
ssI408
(dp5801
I184
(dp5802
sI75
(dp5803
sI269
g5767
sI126
(dp5804
sI159
(dp5805
ssI153
(dp5806
I71
(dp5807
sI299
g5733
sI39
(dp5808
sI122
(dp5809
sI349
(dp5810
sI62
(dp5811
ssI282
(dp5812
I129
g5720
sI43
(dp5813
sI198
(dp5814
sI135
(dp5815
sI391
g5750
sI172
(dp5816
sI239
(dp5817
sI274
g5786
sI307
(dp5818
sI405
g5799
sI87
(dp5819
sI184
(dp5820
sI217
(dp5821
sI380
(dp5822
sI349
(dp5823
sI126
(dp5824
sI213
(dp5825
ssI26
(dp5826
I192
g5760
sI261
g5738
ssI159
(dp5827
I408
g5805
sI184
(dp5828
sI75
(dp5829
sI269
g5771
ssI35
(dp5830
I225
(dp5831
sI327
(dp5832
sI163
(dp5833
sI39
(dp5834
sI202
(dp5835
sI75
(dp5836
sI78
(dp5837
sI401
g5774
sI178
(dp5838
ssI292
(dp5839
I129
g5709
sI386
g5726
sI78
(dp5840
sI87
(dp5841
sI184
(dp5842
sI217
(dp5843
ssI39
(dp5844
I35
g5834
sI299
g5730
sI178
(dp5845
sI153
g5808
sI122
(dp5846
sI349
(dp5847
ssI43
(dp5848
I129
g5713
sI198
(dp5849
sI135
(dp5850
sI265
g5755
sI391
g5745
sI239
(dp5851
sI274
g5781
sI307
(dp5852
sI213
(dp5853
sI217
(dp5854
sI282
g5813
sI380
(dp5855
sI405
g5795
ssI172
(dp5856
I198
(dp5857
sI135
(dp5858
sI239
(dp5859
sI274
g5782
sI405
g5794
sI217
(dp5860
sI282
g5816
sI213
(dp5861
ssI178
(dp5862
I320
(dp5863
sI35
g5838
sI39
g5845
sI327
(dp5864
sI78
(dp5865
sI401
g5776
sI163
(dp5866
ssI307
(dp5867
I129
g5716
sI198
(dp5868
sI135
(dp5869
sI43
g5852
sI405
g5796
sI87
(dp5870
sI217
(dp5871
sI282
g5818
sI213
(dp5872
ssI184
(dp5873
I75
(dp5874
sI292
g5842
sI198
(dp5875
sI299
g5732
sI269
g5769
sI117
(dp5876
sI408
g5802
sI282
g5820
sI159
g5828
ssI314
(dp5877
I217
(dp5878
sI363
(dp5879
ssI62
(dp5880
I13
(dp5881
sI239
(dp5882
sI117
(dp5883
sI153
g5811
sI122
(dp5884
sI349
(dp5885
ssI320
(dp5886
I225
(dp5887
sI327
(dp5888
sI202
(dp5889
sI78
(dp5890
sI401
g5773
sI178
g5863
ssI198
(dp5891
I129
g5710
sI43
g5849
sI391
g5742
sI135
(dp5892
sI265
g5758
sI75
(dp5893
sI172
g5857
sI239
(dp5894
sI274
g5780
sI307
g5868
sI405
g5792
sI87
(dp5895
sI184
g5875
sI217
(dp5896
sI282
g5814
sI380
(dp5897
sI349
(dp5898
sI213
(dp5899
ssI327
(dp5900
I320
g5888
sI225
(dp5901
sI35
g5832
sI202
(dp5902
sI75
(dp5903
sI269
g5762
sI78
(dp5904
sI368
(dp5905
sI401
g5775
sI178
g5864
sI163
(dp5906
ssI202
(dp5907
I320
g5889
sI225
(dp5908
sI35
g5835
sI327
g5902
ssI75
(dp5909
I35
g5836
sI198
g5893
sI327
g5903
sI269
g5763
sI408
g5803
sI405
g5791
sI184
g5874
sI159
g5829
ssI78
(dp5910
I320
g5890
sI35
g5837
sI292
g5840
sI327
g5904
sI178
g5865
sI163
(dp5911
sI117
(dp5912
sI87
(dp5913
ssI13
(dp5914
I386
g5727
sI261
g5739
sI269
g5764
sI62
g5881
sI122
(dp5915
sI349
(dp5916
sI126
(dp5917
ssI353
(dp5918
I232
(dp5919
ssI163
(dp5920
I225
(dp5921
sI35
g5833
sI327
g5906
sI78
g5911
sI401
g5777
sI178
g5866
ssI213
(dp5922
I129
g5717
sI198
g5899
sI391
g5753
sI43
g5853
sI172
g5861
sI239
(dp5923
sI274
g5789
sI307
g5872
sI405
g5797
sI217
(dp5924
sI282
g5825
sI135
(dp5925
ssI87
(dp5926
I129
g5718
sI292
g5841
sI198
g5895
sI78
g5913
sI307
g5870
sI282
g5819
ssI217
(dp5927
I129
g5719
sI213
g5924
sI43
g5854
sI292
g5843
sI198
g5896
sI135
(dp5928
sI265
g5756
sI391
g5749
sI172
g5860
sI269
g5768
sI239
(dp5929
sI274
g5785
sI307
g5871
sI405
g5798
sI282
g5821
sI380
(dp5930
sI314
g5878
sI117
(dp5931
ssI71
(dp5932
I368
(dp5933
sI153
g5807
sI122
(dp5934
sI299
g5729
sI126
(dp5935
ssI135
(dp5936
I129
g5721
sI43
g5850
sI198
g5892
sI391
g5743
sI265
g5757
sI299
g5735
sI172
g5858
sI239
(dp5937
sI274
g5787
sI307
g5869
sI405
g5793
sI217
g5928
sI282
g5815
sI380
(dp5938
sI122
(dp5939
sI213
g5925
ssI349
(dp5940
I129
g5722
sI198
g5898
sI39
g5847
sI299
g5736
sI13
g5916
sI368
(dp5941
sI153
g5810
sI122
(dp5942
sI282
g5823
sI62
g5885
ssI225
(dp5943
I320
g5887
sI35
g5831
sI202
g5908
sI163
g5921
sI327
g5901
ssI232
(dp5944
I353
g5919
ssI363
(dp5945
I314
g5879
sI386
g5725
ssI239
(dp5946
I129
g5714
sI43
g5851
sI198
g5894
sI135
g5937
sI391
g5746
sI172
g5859
sI274
g5783
sI213
g5923
sI217
g5929
sI282
g5817
sI380
(dp5947
sI62
g5882
ssI368
(dp5948
I71
g5933
sI327
g5905
sI299
g5731
sI117
(dp5949
sI122
(dp5950
sI349
g5941
ssI117
(dp5951
I78
g5912
sI368
g5949
sI184
g5876
sI217
g5931
sI122
(dp5952
sI62
g5883
ssI122
(dp5953
I129
g5712
sI391
g5752
sI39
g5846
sI299
g5734
sI13
g5915
sI368
g5950
sI274
g5788
sI117
g5952
sI153
g5809
sI71
g5934
sI135
g5939
sI349
g5942
sI62
g5884
ssI380
(dp5954
I391
g5751
sI198
g5897
sI135
g5938
sI43
g5855
sI239
g5947
sI405
g5800
sI217
g5930
sI282
g5822
ssI126
(dp5955
I261
g5740
sI71
g5935
sI13
g5917
sI269
g5770
sI408
g5804
sI282
g5824
ssI21
(dp5956
I401
g5778
sI269
g5766
sssg143
(dp5957
sg145
g35
sg146
g5706
sbag1
(g2
g3
Ntp5958
Rp5959
(dp5960
g7
(dp5961
I129
(dp5962
sI386
(dp5963
sI299
(dp5964
sI135
(dp5965
sI13
(dp5966
sI401
(dp5967
sI274
(dp5968
sI148
(dp5969
sI405
(dp5970
sI22
(dp5971
sI225
(dp5972
sI282
(dp5973
sI283
(dp5974
sI240
(dp5975
sI35
(dp5976
sI164
(dp5977
sI39
(dp5978
sI43
(dp5979
sI173
(dp5980
sI178
(dp5981
sI307
(dp5982
sI184
(dp5983
sI185
(dp5984
sI314
(dp5985
sI62
(dp5986
sI321
(dp5987
sI198
(dp5988
sI327
(dp5989
sI202
(dp5990
sI79
(dp5991
sI163
(dp5992
sI340
(dp5993
sI213
(dp5994
sI214
(dp5995
sI87
(dp5996
sI88
(dp5997
sI217
(dp5998
sI349
(dp5999
sI353
(dp6000
sI391
(dp6001
sI232
(dp6002
sI105
(dp6003
sI363
(dp6004
sI109
(dp6005
sI239
(dp6006
sI368
(dp6007
sI369
(dp6008
sI114
(dp6009
sI292
(dp6010
sI122
(dp6011
sI380
(dp6012
sI381
(dp6013
sI254
(dp6014
ssg34
g35
sg36
g35
sg37
(dp6015
I129
(dp6016
I225
(dp6017
sI164
(dp6018
sI198
(dp6019
sI391
(dp6020
sI114
(dp6021
sI349
(dp6022
sI274
(dp6023
sI22
(dp6024
sI87
(dp6025
sI282
(dp6026
sI380
(dp6027
sI314
(dp6028
sI254
(dp6029
ssI386
(dp6030
I282
(dp6031
sI43
(dp6032
ssI299
(dp6033
I35
(dp6034
sI198
(dp6035
sI135
(dp6036
sI202
(dp6037
sI363
(dp6038
sI368
(dp6039
sI401
(dp6040
sI380
(dp6041
sI349
(dp6042
ssI135
(dp6043
I353
(dp6044
sI164
(dp6045
sI198
(dp6046
sI391
(dp6047
sI299
g6036
sI173
(dp6048
sI381
(dp6049
sI274
(dp6050
sI307
(dp6051
sI213
(dp6052
sI88
(dp6053
sI283
(dp6054
sI349
(dp6055
ssI13
(dp6056
I214
(dp6057
sI122
(dp6058
sI173
(dp6059
sI62
(dp6060
ssI401
(dp6061
I299
g6040
sI35
(dp6062
sI327
(dp6063
ssI274
(dp6064
I129
g6023
sI198
(dp6065
sI135
g6050
sI391
(dp6066
sI239
(dp6067
sI213
(dp6068
sI282
(dp6069
ssI148
(dp6070
I321
(dp6071
sI292
(dp6072
sI105
(dp6073
sI363
(dp6074
sI109
(dp6075
sI79
(dp6076
sI114
(dp6077
sI340
(dp6078
sI22
(dp6079
sI185
(dp6080
sI314
(dp6081
sI254
(dp6082
ssI405
(dp6083
I217
(dp6084
sI163
(dp6085
sI380
(dp6086
sI213
(dp6087
ssI22
(dp6088
I321
(dp6089
sI129
g6024
sI232
(dp6090
sI105
(dp6091
sI363
(dp6092
sI109
(dp6093
sI79
(dp6094
sI114
(dp6095
sI148
g6079
sI185
(dp6096
sI340
(dp6097
sI314
(dp6098
sI254
(dp6099
ssI225
(dp6100
I129
g6017
sI202
(dp6101
ssI282
(dp6102
I129
g6026
sI386
g6031
sI163
(dp6103
sI391
(dp6104
sI274
g6069
sI213
(dp6105
sI87
(dp6106
sI380
(dp6107
ssI283
(dp6108
I88
(dp6109
sI353
(dp6110
sI307
(dp6111
sI164
(dp6112
sI135
g6054
ssI240
(dp6113
I232
(dp6114
sI369
(dp6115
sI164
(dp6116
ssI35
(dp6117
I401
g6062
sI202
(dp6118
sI163
(dp6119
sI178
(dp6120
sI299
g6034
ssI164
(dp6121
I129
g6018
sI198
(dp6122
sI135
g6045
sI232
(dp6123
sI240
g6116
sI307
(dp6124
sI283
g6112
ssI39
(dp6125
I122
(dp6126
ssI43
(dp6127
I386
g6032
sI213
(dp6128
ssI173
(dp6129
I353
(dp6130
sI292
(dp6131
sI13
g6059
sI135
g6048
ssI178
(dp6132
I35
g6120
sI163
(dp6133
ssI307
(dp6134
I164
g6124
sI198
(dp6135
sI135
g6051
sI105
(dp6136
sI283
g6111
sI349
(dp6137
ssI184
(dp6138
I105
(dp6139
ssI185
(dp6140
I321
(dp6141
sI353
(dp6142
sI105
(dp6143
sI363
(dp6144
sI109
(dp6145
sI79
(dp6146
sI114
(dp6147
sI148
g6080
sI22
g6096
sI340
(dp6148
sI314
(dp6149
sI254
(dp6150
ssI314
(dp6151
I321
(dp6152
sI129
g6028
sI340
(dp6153
sI105
(dp6154
sI363
(dp6155
sI109
(dp6156
sI79
(dp6157
sI114
(dp6158
sI148
g6081
sI22
g6098
sI185
g6149
sI349
(dp6159
sI254
(dp6160
ssI62
(dp6161
I122
(dp6162
sI13
g6060
ssI321
(dp6163
I353
(dp6164
sI148
g6071
sI198
(dp6165
sI232
(dp6166
sI105
(dp6167
sI363
(dp6168
sI79
(dp6169
sI114
(dp6170
sI340
(dp6171
sI22
g6089
sI185
g6141
sI314
g6152
sI254
(dp6172
ssI198
(dp6173
I129
g6019
sI299
g6035
sI164
g6122
sI135
g6046
sI391
(dp6174
sI353
(dp6175
sI114
(dp6176
sI321
g6165
sI239
(dp6177
sI274
g6065
sI307
g6135
sI213
(dp6178
sI363
(dp6179
sI380
(dp6180
sI349
(dp6181
sI254
(dp6182
ssI327
(dp6183
I401
g6063
sI202
(dp6184
sI163
(dp6185
ssI202
(dp6186
I225
g6101
sI35
g6118
sI327
g6184
sI299
g6037
sI122
(dp6187
sI254
(dp6188
ssI79
(dp6189
I321
g6169
sI340
(dp6190
sI363
(dp6191
sI114
(dp6192
sI148
g6076
sI22
g6094
sI185
g6146
sI314
g6157
sI254
(dp6193
ssI163
(dp6194
I35
g6119
sI327
g6185
sI239
(dp6195
sI178
g6133
sI405
g6085
sI282
g6103
sI213
(dp6196
ssI340
(dp6197
I321
g6171
sI105
(dp6198
sI363
(dp6199
sI109
(dp6200
sI79
g6190
sI114
(dp6201
sI148
g6078
sI22
g6097
sI185
g6148
sI314
g6153
sI254
(dp6202
ssI213
(dp6203
I163
g6196
sI198
g6178
sI135
g6052
sI43
g6128
sI239
(dp6204
sI274
g6068
sI405
g6087
sI282
g6105
ssI214
(dp6205
I13
g6057
ssI87
(dp6206
I129
g6025
sI282
g6106
sI254
(dp6207
sI391
(dp6208
ssI88
(dp6209
I283
g6109
sI135
g6053
ssI217
(dp6210
I405
g6084
ssI349
(dp6211
I129
g6022
sI198
g6181
sI135
g6055
sI299
g6042
sI368
(dp6212
sI307
g6137
sI314
g6159
ssI353
(dp6213
I321
g6164
sI198
g6175
sI135
g6044
sI232
(dp6214
sI173
g6130
sI114
(dp6215
sI185
g6142
sI283
g6110
ssI391
(dp6216
I129
g6020
sI198
g6174
sI135
g6047
sI274
g6066
sI87
g6208
sI282
g6104
ssI232
(dp6217
I353
g6214
sI164
g6123
sI321
g6166
sI240
g6114
sI114
(dp6218
sI22
g6090
ssI105
(dp6219
I321
g6167
sI148
g6073
sI363
(dp6220
sI109
(dp6221
sI114
(dp6222
sI307
g6136
sI340
g6198
sI22
g6091
sI184
g6139
sI185
g6143
sI314
g6154
sI122
(dp6223
sI254
(dp6224
ssI363
(dp6225
I321
g6168
sI148
g6074
sI198
g6179
sI105
g6220
sI299
g6038
sI79
g6191
sI114
(dp6226
sI340
g6199
sI22
g6092
sI185
g6144
sI314
g6155
sI122
(dp6227
sI254
(dp6228
ssI109
(dp6229
I105
g6221
sI148
g6075
sI22
g6093
sI185
g6145
sI340
g6200
sI314
g6156
sI254
(dp6230
ssI239
(dp6231
I274
g6067
sI163
g6195
sI213
g6204
sI198
g6177
ssI368
(dp6232
I299
g6039
sI349
g6212
ssI369
(dp6233
I240
g6115
ssI114
(dp6234
I321
g6170
sI198
g6176
sI129
g6021
sI232
g6218
sI105
g6222
sI363
g6226
sI353
g6215
sI340
g6201
sI22
g6095
sI185
g6147
sI148
g6077
sI314
g6158
sI79
g6192
sI254
(dp6235
ssI292
(dp6236
I148
g6072
sI173
g6131
ssI122
(dp6237
I39
g6126
sI105
g6223
sI202
g6187
sI363
g6227
sI13
g6058
sI62
g6162
ssI380
(dp6238
I129
g6027
sI282
g6107
sI299
g6041
sI405
g6086
sI198
g6180
ssI381
(dp6239
I135
g6049
ssI254
(dp6240
I129
g6029
sI198
g6182
sI321
g6172
sI105
g6224
sI202
g6188
sI363
g6228
sI109
g6230
sI79
g6193
sI114
g6235
sI340
g6202
sI22
g6099
sI87
g6207
sI148
g6082
sI314
g6160
sI185
g6150
sssg143
(dp6241
sg145
g35
sg146
g6015
sbag1
(g2
g3
Ntp6242
Rp6243
(dp6244
g7
(dp6245
I135
(dp6246
sI13
(dp6247
sI148
(dp6248
sI22
(dp6249
sI153
(dp6250
sI154
(dp6251
sI283
(dp6252
sI164
(dp6253
sI39
(dp6254
sI370
(dp6255
sI307
(dp6256
sI185
(dp6257
sI314
(dp6258
sI321
(dp6259
sI225
(dp6260
sI202
(dp6261
sI79
(dp6262
sI340
(dp6263
sI214
(dp6264
sI88
(dp6265
sI292
(dp6266
sI94
(dp6267
sI353
(dp6268
sI232
(dp6269
sI105
(dp6270
sI363
(dp6271
sI109
(dp6272
sI240
(dp6273
sI114
(dp6274
sI126
(dp6275
sI122
(dp6276
sI254
(dp6277
ssg34
g35
sg36
g35
sg37
(dp6278
I135
(dp6279
I370
(dp6280
sI307
(dp6281
sI164
(dp6282
ssI13
(dp6283
I214
(dp6284
ssI148
(dp6285
I321
(dp6286
sI105
(dp6287
sI363
(dp6288
sI109
(dp6289
sI79
(dp6290
sI240
(dp6291
sI114
(dp6292
sI340
(dp6293
sI22
(dp6294
sI185
(dp6295
sI314
(dp6296
sI254
(dp6297
ssI22
(dp6298
I321
(dp6299
sI105
(dp6300
sI363
(dp6301
sI109
(dp6302
sI79
(dp6303
sI114
(dp6304
sI148
g6294
sI185
(dp6305
sI340
(dp6306
sI122
(dp6307
sI254
(dp6308
ssI153
(dp6309
I122
(dp6310
sI39
(dp6311
ssI154
(dp6312
I94
(dp6313
sI126
(dp6314
ssI283
(dp6315
I105
(dp6316
sI240
(dp6317
sI114
(dp6318
sI126
(dp6319
sI88
(dp6320
sI314
(dp6321
sI254
(dp6322
ssI164
(dp6323
I135
g6282
ssI39
(dp6324
I153
g6311
ssI370
(dp6325
I307
(dp6326
sI135
g6280
ssI307
(dp6327
I370
g6326
sI135
g6281
ssI185
(dp6328
I321
(dp6329
sI105
(dp6330
sI363
(dp6331
sI79
(dp6332
sI114
(dp6333
sI148
g6295
sI22
g6305
sI340
(dp6334
sI314
(dp6335
sI254
(dp6336
ssI314
(dp6337
I321
(dp6338
sI340
(dp6339
sI105
(dp6340
sI79
(dp6341
sI114
(dp6342
sI148
g6296
sI185
g6335
sI283
g6321
sI254
(dp6343
ssI321
(dp6344
I340
(dp6345
sI105
(dp6346
sI363
(dp6347
sI109
(dp6348
sI79
(dp6349
sI114
(dp6350
sI148
g6286
sI22
g6299
sI185
g6329
sI314
g6338
sI254
(dp6351
ssI225
(dp6352
I202
(dp6353
ssI202
(dp6354
I225
g6353
ssI79
(dp6355
I321
g6349
sI105
(dp6356
sI363
(dp6357
sI114
(dp6358
sI148
g6290
sI22
g6303
sI185
g6332
sI314
g6341
sI122
(dp6359
sI254
(dp6360
ssI340
(dp6361
I321
g6345
sI105
(dp6362
sI363
(dp6363
sI240
(dp6364
sI114
(dp6365
sI148
g6293
sI94
(dp6366
sI22
g6306
sI185
g6334
sI314
g6339
sI254
(dp6367
ssI214
(dp6368
I13
g6284
ssI88
(dp6369
I240
(dp6370
sI283
g6320
sI126
(dp6371
ssI292
(dp6372
I105
(dp6373
ssI94
(dp6374
I240
(dp6375
sI154
g6313
sI340
g6366
ssI353
(dp6376
I232
(dp6377
ssI232
(dp6378
I353
g6377
ssI105
(dp6379
I321
g6346
sI148
g6287
sI292
g6373
sI79
g6356
sI240
(dp6380
sI114
(dp6381
sI340
g6362
sI22
g6300
sI185
g6330
sI314
g6340
sI283
g6316
sI254
(dp6382
ssI363
(dp6383
I321
g6347
sI148
g6288
sI79
g6357
sI114
(dp6384
sI340
g6363
sI22
g6301
sI185
g6331
sI122
(dp6385
sI254
(dp6386
ssI109
(dp6387
I321
g6348
sI148
g6289
sI22
g6302
ssI240
(dp6388
I105
g6380
sI148
g6291
sI88
g6370
sI340
g6364
sI283
g6317
sI94
g6375
ssI114
(dp6389
I321
g6350
sI105
g6381
sI363
g6384
sI79
g6358
sI340
g6365
sI22
g6304
sI185
g6333
sI148
g6292
sI122
(dp6390
sI283
g6318
sI314
g6342
sI254
(dp6391
ssI126
(dp6392
I88
g6371
sI154
g6314
sI283
g6319
ssI122
(dp6393
I153
g6310
sI114
g6390
sI363
g6385
sI22
g6307
sI79
g6359
ssI254
(dp6394
I321
g6351
sI105
g6382
sI363
g6386
sI79
g6360
sI114
g6391
sI340
g6367
sI22
g6308
sI185
g6336
sI148
g6297
sI314
g6343
sI283
g6322
sssg143
(dp6395
sg145
g35
sg146
g6278
sbag1
(g2
g3
Ntp6396
Rp6397
(dp6398
g7
(dp6399
I130
(dp6400
sI135
(dp6401
sI13
(dp6402
sI409
(dp6403
sI154
(dp6404
sI283
(dp6405
sI155
(dp6406
sI164
(dp6407
sI199
(dp6408
sI307
(dp6409
sI186
(dp6410
sI322
(dp6411
sI353
(dp6412
sI202
(dp6413
sI203
(dp6414
sI340
(dp6415
sI214
(dp6416
sI88
(dp6417
sI94
(dp6418
sI225
(dp6419
sI226
(dp6420
sI232
(dp6421
sI110
(dp6422
sI240
(dp6423
sI370
(dp6424
sI123
(dp6425
sI381
(dp6426
sI126
(dp6427
ssg34
g35
sg36
g35
sg37
(dp6428
I130
(dp6429
I409
(dp6430
sI203
(dp6431
ssI135
(dp6432
I370
(dp6433
sI307
(dp6434
sI164
(dp6435
sI381
(dp6436
ssI13
(dp6437
I123
(dp6438
ssI409
(dp6439
I130
g6430
sI226
(dp6440
ssI154
(dp6441
I88
(dp6442
sI283
(dp6443
sI126
(dp6444
ssI283
(dp6445
I88
(dp6446
sI154
g6443
ssI155
(dp6447
I225
(dp6448
sI202
(dp6449
sI322
(dp6450
sI186
(dp6451
ssI164
(dp6452
I370
(dp6453
sI307
(dp6454
sI135
g6435
ssI199
(dp6455
I353
(dp6456
sI126
(dp6457
sI94
(dp6458
ssI307
(dp6459
I340
(dp6460
sI164
g6454
sI135
g6434
ssI186
(dp6461
I155
g6451
ssI322
(dp6462
I226
(dp6463
sI155
g6450
sI110
(dp6464
ssI353
(dp6465
I240
(dp6466
sI225
(dp6467
sI232
(dp6468
sI126
(dp6469
sI199
g6456
ssI202
(dp6470
I225
(dp6471
sI155
g6449
ssI203
(dp6472
I226
(dp6473
sI130
g6431
ssI340
(dp6474
I240
(dp6475
sI307
g6460
sI94
(dp6476
ssI214
(dp6477
I240
(dp6478
ssI88
(dp6479
I154
g6442
sI283
g6446
ssI94
(dp6480
I240
(dp6481
sI340
g6476
sI199
g6458
ssI225
(dp6482
I353
g6467
sI202
g6471
sI155
g6448
ssI226
(dp6483
I409
g6440
sI322
g6463
sI203
g6473
ssI232
(dp6484
I353
g6468
sI126
(dp6485
ssI110
(dp6486
I322
g6464
ssI240
(dp6487
I353
g6466
sI340
g6475
sI94
g6481
sI214
g6478
ssI370
(dp6488
I164
g6453
sI381
(dp6489
sI135
g6433
ssI123
(dp6490
I13
g6438
ssI381
(dp6491
I370
g6489
sI135
g6436
ssI126
(dp6492
I232
g6485
sI353
g6469
sI154
g6444
sI199
g6457
sssg143
(dp6493
sg145
g35
sg146
g6428
sbag1
(g2
g3
Ntp6494
Rp6495
(dp6496
g7
(dp6497
I130
(dp6498
sI135
(dp6499
sI13
(dp6500
sI409
(dp6501
sI155
(dp6502
sI283
(dp6503
sI164
(dp6504
sI174
(dp6505
sI307
(dp6506
sI186
(dp6507
sI315
(dp6508
sI62
(dp6509
sI322
(dp6510
sI199
(dp6511
sI203
(dp6512
sI340
(dp6513
sI88
(dp6514
sI292
(dp6515
sI94
(dp6516
sI353
(dp6517
sI226
(dp6518
sI232
(dp6519
sI110
(dp6520
sI240
(dp6521
sI370
(dp6522
sI123
(dp6523
sI381
(dp6524
sI126
(dp6525
ssg34
g35
sg36
g35
sg37
(dp6526
I130
(dp6527
I409
(dp6528
sI292
(dp6529
sI174
(dp6530
ssI135
(dp6531
I307
(dp6532
sI370
(dp6533
sI155
(dp6534
sI164
(dp6535
sI381
(dp6536
ssI13
(dp6537
I315
(dp6538
sI123
(dp6539
sI340
(dp6540
sI174
(dp6541
ssI409
(dp6542
I130
g6528
sI292
(dp6543
sI94
(dp6544
sI62
(dp6545
ssI155
(dp6546
I203
(dp6547
sI164
(dp6548
sI199
(dp6549
sI135
g6534
sI240
(dp6550
sI186
(dp6551
sI283
(dp6552
ssI283
(dp6553
I155
g6552
sI340
(dp6554
sI94
(dp6555
ssI164
(dp6556
I307
(dp6557
sI370
(dp6558
sI155
g6548
sI381
(dp6559
sI135
g6535
ssI174
(dp6560
I226
(dp6561
sI130
g6530
sI315
(dp6562
sI13
g6541
sI186
(dp6563
ssI307
(dp6564
I292
(dp6565
sI164
g6557
sI135
g6532
ssI186
(dp6566
I155
g6551
sI174
g6563
ssI315
(dp6567
I292
(dp6568
sI13
g6538
sI174
g6562
ssI62
(dp6569
I409
g6545
ssI322
(dp6570
I110
(dp6571
ssI199
(dp6572
I232
(dp6573
sI353
(dp6574
sI155
g6549
sI126
(dp6575
ssI203
(dp6576
I240
(dp6577
sI226
(dp6578
sI155
g6547
ssI340
(dp6579
I292
(dp6580
sI13
g6540
sI240
(dp6581
sI88
(dp6582
sI283
g6554
sI94
(dp6583
ssI88
(dp6584
I340
g6582
ssI292
(dp6585
I130
g6529
sI307
g6565
sI340
g6580
sI409
g6543
sI315
g6568
sI94
(dp6586
ssI94
(dp6587
I240
(dp6588
sI409
g6544
sI283
g6555
sI340
g6583
sI292
g6586
ssI353
(dp6589
I232
(dp6590
sI199
g6574
ssI226
(dp6591
I203
g6578
sI174
g6561
ssI232
(dp6592
I353
g6590
sI199
g6573
ssI110
(dp6593
I322
g6571
ssI240
(dp6594
I203
g6577
sI340
g6581
sI155
g6550
sI94
g6588
ssI370
(dp6595
I164
g6558
sI381
(dp6596
sI135
g6533
ssI123
(dp6597
I13
g6539
ssI381
(dp6598
I370
g6596
sI164
g6559
sI135
g6536
ssI126
(dp6599
I199
g6575
sssg143
(dp6600
sg145
g35
sg146
g6526
sbag1
(g2
g3
Ntp6601
Rp6602
(dp6603
g7
(dp6604
I353
(dp6605
sI130
(dp6606
sI155
(dp6607
sI293
(dp6608
sI199
(dp6609
sI232
(dp6610
sI203
(dp6611
sI44
(dp6612
sI13
(dp6613
sI110
(dp6614
sI174
(dp6615
sI240
(dp6616
sI123
(dp6617
sI341
(dp6618
sI315
(dp6619
sI88
(dp6620
sI409
(dp6621
sI186
(dp6622
sI283
(dp6623
sI322
(dp6624
sI126
(dp6625
ssg34
g35
sg36
g35
sg37
(dp6626
I353
(dp6627
I232
(dp6628
sI130
(dp6629
sI293
(dp6630
ssI130
(dp6631
I240
(dp6632
sI409
(dp6633
sI203
(dp6634
sI199
(dp6635
sI353
g6629
ssI155
(dp6636
I293
(dp6637
sI232
(dp6638
sI203
(dp6639
sI44
(dp6640
sI13
(dp6641
sI240
(dp6642
sI341
(dp6643
sI88
(dp6644
sI186
(dp6645
sI126
(dp6646
ssI293
(dp6647
I353
g6630
sI155
g6637
sI199
(dp6648
sI203
(dp6649
sI13
(dp6650
sI240
(dp6651
sI315
(dp6652
sI186
(dp6653
sI123
(dp6654
ssI199
(dp6655
I322
(dp6656
sI293
g6648
sI203
(dp6657
sI130
g6635
sI240
(dp6658
sI409
(dp6659
sI315
(dp6660
ssI232
(dp6661
I353
g6628
sI155
g6638
ssI203
(dp6662
I130
g6634
sI293
g6649
sI199
g6657
sI240
(dp6663
sI341
(dp6664
sI88
(dp6665
sI155
g6639
sI126
(dp6666
ssI44
(dp6667
I240
(dp6668
sI155
g6640
ssI13
(dp6669
I123
(dp6670
sI283
(dp6671
sI155
g6641
sI293
g6650
ssI110
(dp6672
I322
(dp6673
ssI174
(dp6674
I315
(dp6675
ssI240
(dp6676
I130
g6632
sI315
(dp6677
sI293
g6651
sI199
g6658
sI203
g6663
sI44
g6668
sI341
(dp6678
sI88
(dp6679
sI155
g6642
sI126
(dp6680
ssI123
(dp6681
I13
g6670
sI293
g6654
ssI341
(dp6682
I88
(dp6683
sI240
g6678
sI203
g6664
sI155
g6643
ssI315
(dp6684
I240
g6677
sI293
g6652
sI174
g6675
sI199
g6660
ssI88
(dp6685
I240
g6679
sI155
g6644
sI341
g6683
sI203
g6665
ssI409
(dp6686
I130
g6633
sI199
g6659
ssI186
(dp6687
I155
g6645
sI293
g6653
ssI283
(dp6688
I13
g6671
ssI322
(dp6689
I110
g6673
sI199
g6656
ssI126
(dp6690
I240
g6680
sI155
g6646
sI203
g6666
sssg143
(dp6691
sg145
g35
sg146
g6626
sbag1
(g2
g3
Ntp6692
Rp6693
(dp6694
g7
(dp6695
I130
(dp6696
sI199
(dp6697
sI203
(dp6698
sI240
(dp6699
sI409
(dp6700
sI315
(dp6701
ssg34
g35
sg36
g35
sg37
(dp6702
I130
(dp6703
I240
(dp6704
sI315
(dp6705
sI199
(dp6706
ssI199
(dp6707
I409
(dp6708
sI130
g6706
ssI203
(dp6709
I315
(dp6710
ssI240
(dp6711
I130
g6704
ssI409
(dp6712
I199
g6708
ssI315
(dp6713
I130
g6705
sI203
g6710
sssg143
(dp6714
sg145
g35
sg146
g6702
sba.