(lp0
ccopy_reg
_reconstructor
p1
(cnetworkx.classes.graph
Graph
p2
c__builtin__
object
p3
Ntp4
Rp5
(dp6
S'node'
p7
(dp8
I1
(dp9
sI131
(dp10
sI132
(dp11
sI321
(dp12
sI8
(dp13
sI9
(dp14
sI236
(dp15
sI279
(dp16
sI268
(dp17
sI14
(dp18
sI143
(dp19
sI152
(dp20
sI18
(dp21
sI323
(dp22
sI276
(dp23
sI22
(dp24
sI23
(dp25
sI24
(dp26
sI153
(dp27
sI282
(dp28
sI283
(dp29
sI156
(dp30
sI30
(dp31
sI287
(dp32
sI32
(dp33
sI289
(dp34
sI36
(dp35
sI165
(dp36
sI168
(dp37
sI199
(dp38
sI173
(dp39
sI46
(dp40
sI47
(dp41
sI305
(dp42
sI115
(dp43
sI308
(dp44
sI53
(dp45
sI54
(dp46
sI55
(dp47
sI185
(dp48
sI181
(dp49
sI192
(dp50
sI160
(dp51
sI66
(dp52
sI195
(dp53
sI68
(dp54
sI69
(dp55
sI70
(dp56
sI33
(dp57
sI200
(dp58
sI12
(dp59
sI275
(dp60
sI78
(dp61
sI81
(dp62
sI301
(dp63
sI218
(dp64
sI91
(dp65
sI95
(dp66
sI96
(dp67
sI98
(dp68
sI100
(dp69
sI102
(dp70
sI104
(dp71
sI105
(dp72
sI108
(dp73
sI113
(dp74
sI147
(dp75
sI116
(dp76
sI161
(dp77
sI119
(dp78
sI120
(dp79
sI137
(dp80
sI123
(dp81
sI124
(dp82
sI125
(dp83
sI264
(dp84
ssS'node_dict_factory'
p85
c__builtin__
dict
p86
sS'edge_attr_dict_factory'
p87
g86
sS'edge'
p88
(dp89
I1
(dp90
I289
(dp91
ssI131
(dp92
I100
(dp93
sI70
(dp94
sI102
(dp95
sI113
(dp96
sI153
(dp97
sI123
(dp98
sI125
(dp99
sI30
(dp100
ssI132
(dp101
I301
(dp102
ssI321
(dp103
I96
(dp104
sI264
(dp105
ssI8
(dp106
I200
(dp107
sI173
(dp108
sI14
(dp109
sI81
(dp110
sI53
(dp111
sI54
(dp112
sI55
(dp113
ssI9
(dp114
I120
(dp115
sI124
(dp116
sI108
(dp117
sI165
(dp118
sI143
(dp119
ssI236
(dp120
I104
(dp121
sI105
(dp122
sI287
(dp123
sI36
(dp124
sI199
(dp125
ssI279
(dp126
I218
(dp127
sI91
(dp128
ssI268
(dp129
I12
(dp130
ssI14
(dp131
I8
g109
sI173
(dp132
sI81
(dp133
sI54
(dp134
sI55
(dp135
sI200
(dp136
ssI143
(dp137
I165
(dp138
sI9
g119
sI108
(dp139
sI137
(dp140
sI120
(dp141
sI185
(dp142
sI124
(dp143
ssI152
(dp144
I181
(dp145
ssI18
(dp146
I305
(dp147
sI283
(dp148
ssI323
(dp149
I195
(dp150
sI116
(dp151
ssI276
(dp152
I153
(dp153
sI70
(dp154
ssI22
(dp155
I23
(dp156
ssI23
(dp157
I66
(dp158
sI22
g156
ssI24
(dp159
I68
(dp160
ssI153
(dp161
I131
g97
sI70
(dp162
sI113
(dp163
sI116
(dp164
sI276
g153
sI123
(dp165
sI125
(dp166
sI30
(dp167
ssI282
(dp168
I47
(dp169
sI156
(dp170
sI46
(dp171
sI95
(dp172
ssI283
(dp173
I305
(dp174
sI18
g148
ssI156
(dp175
I161
(dp176
sI282
g170
sI47
(dp177
sI46
(dp178
sI95
(dp179
ssI30
(dp180
I131
g100
sI70
(dp181
sI113
(dp182
sI153
g167
sI123
(dp183
sI125
(dp184
ssI287
(dp185
I104
(dp186
sI105
(dp187
sI36
(dp188
sI236
g123
sI199
(dp189
ssI32
(dp190
I192
(dp191
ssI289
(dp192
I1
g91
ssI36
(dp193
I104
(dp194
sI105
(dp195
sI287
g188
sI236
g124
sI199
(dp196
ssI165
(dp197
I120
(dp198
sI9
g118
sI108
(dp199
sI124
(dp200
sI143
g138
ssI168
(dp201
I181
(dp202
ssI199
(dp203
I104
(dp204
sI105
(dp205
sI36
g196
sI236
g125
sI287
g189
ssI173
(dp206
I8
g108
sI14
g132
sI81
(dp207
sI54
(dp208
sI55
(dp209
sI200
(dp210
ssI46
(dp211
I282
g171
sI95
(dp212
sI156
g178
sI47
(dp213
ssI47
(dp214
I282
g169
sI156
g177
sI46
g213
sI95
(dp215
ssI305
(dp216
I18
g147
sI283
g174
ssI115
(dp217
I147
(dp218
ssI308
(dp219
I78
(dp220
ssI53
(dp221
I8
g111
ssI54
(dp222
I8
g112
sI173
g208
sI14
g134
sI81
(dp223
sI55
(dp224
sI200
(dp225
ssI55
(dp226
I8
g113
sI173
g209
sI14
g135
sI81
(dp227
sI54
g224
sI200
(dp228
ssI185
(dp229
I143
g142
ssI181
(dp230
I152
g145
sI33
(dp231
sI168
g202
sI69
(dp232
ssI192
(dp233
I32
g191
ssI160
(dp234
I119
(dp235
ssI66
(dp236
I23
g158
ssI195
(dp237
I323
g150
sI116
(dp238
ssI68
(dp239
I24
g160
ssI69
(dp240
I181
g232
ssI70
(dp241
I131
g94
sI100
(dp242
sI102
(dp243
sI113
(dp244
sI276
g154
sI153
g162
sI123
(dp245
sI125
(dp246
sI30
g181
ssI33
(dp247
I181
g231
ssI200
(dp248
I8
g107
sI173
g210
sI14
g136
sI81
(dp249
sI54
g225
sI55
g228
ssI12
(dp250
I268
g130
ssI275
(dp251
I98
(dp252
ssI78
(dp253
I308
g220
ssI81
(dp254
I8
g110
sI173
g207
sI14
g133
sI200
g249
sI54
g223
sI55
g227
ssI301
(dp255
I132
g102
ssI218
(dp256
I91
(dp257
sI279
g127
ssI91
(dp258
I218
g257
sI279
g128
ssI95
(dp259
I282
g172
sI156
g179
sI46
g212
sI47
g215
ssI96
(dp260
I264
(dp261
sI321
g104
ssI98
(dp262
I275
g252
ssI100
(dp263
I123
(dp264
sI131
g93
sI102
(dp265
sI70
g242
sI125
(dp266
ssI102
(dp267
I131
g95
sI123
(dp268
sI100
g265
sI125
(dp269
sI70
g243
ssI104
(dp270
I105
(dp271
sI287
g186
sI36
g194
sI236
g121
sI199
g204
ssI105
(dp272
I104
g271
sI236
g122
sI287
g187
sI36
g195
sI199
g205
ssI108
(dp273
I120
(dp274
sI9
g117
sI124
(dp275
sI165
g199
sI143
g139
ssI113
(dp276
I131
g96
sI70
g244
sI153
g163
sI123
(dp277
sI125
(dp278
sI30
g182
ssI147
(dp279
I115
g218
ssI116
(dp280
I153
g164
sI323
g151
sI195
g238
ssI161
(dp281
I156
g176
ssI119
(dp282
I160
g235
ssI120
(dp283
I9
g115
sI108
g274
sI165
g198
sI124
(dp284
sI143
g141
ssI137
(dp285
I143
g140
ssI123
(dp286
I131
g98
sI100
g264
sI70
g245
sI102
g268
sI113
g277
sI153
g165
sI125
(dp287
sI30
g183
ssI124
(dp288
I120
g284
sI9
g116
sI108
g275
sI165
g200
sI143
g143
ssI125
(dp289
I131
g99
sI100
g266
sI70
g246
sI102
g269
sI113
g278
sI153
g166
sI123
g287
sI30
g184
ssI264
(dp290
I96
g261
sI321
g105
sssS'graph'
p291
(dp292
sS'adjlist_dict_factory'
p293
g86
sS'adj'
p294
g89
sbag1
(g2
g3
Ntp295
Rp296
(dp297
g7
(dp298
I1
(dp299
sI2
(dp300
sI3
(dp301
sI8
(dp302
sI9
(dp303
sI14
(dp304
sI18
(dp305
sI24
(dp306
sI28
(dp307
sI29
(dp308
sI30
(dp309
sI32
(dp310
sI35
(dp311
sI36
(dp312
sI37
(dp313
sI50
(dp314
sI53
(dp315
sI54
(dp316
sI55
(dp317
sI59
(dp318
sI63
(dp319
sI69
(dp320
sI70
(dp321
sI78
(dp322
sI81
(dp323
sI86
(dp324
sI96
(dp325
sI98
(dp326
sI100
(dp327
sI102
(dp328
sI104
(dp329
sI105
(dp330
sI108
(dp331
sI113
(dp332
sI115
(dp333
sI116
(dp334
sI120
(dp335
sI123
(dp336
sI124
(dp337
sI125
(dp338
sI131
(dp339
sI133
(dp340
sI137
(dp341
sI140
(dp342
sI143
(dp343
sI147
(dp344
sI151
(dp345
sI152
(dp346
sI153
(dp347
sI156
(dp348
sI160
(dp349
sI161
(dp350
sI165
(dp351
sI173
(dp352
sI176
(dp353
sI181
(dp354
sI184
(dp355
sI185
(dp356
sI190
(dp357
sI191
(dp358
sI192
(dp359
sI195
(dp360
sI199
(dp361
sI200
(dp362
sI204
(dp363
sI207
(dp364
sI208
(dp365
sI218
(dp366
sI221
(dp367
sI236
(dp368
sI238
(dp369
sI241
(dp370
sI242
(dp371
sI254
(dp372
sI262
(dp373
sI264
(dp374
sI276
(dp375
sI279
(dp376
sI283
(dp377
sI287
(dp378
sI288
(dp379
sI289
(dp380
sI297
(dp381
sI301
(dp382
sI305
(dp383
sI308
(dp384
sI317
(dp385
sI321
(dp386
sI322
(dp387
sI323
(dp388
ssg85
g86
sg87
g86
sg88
(dp389
I1
(dp390
I289
(dp391
ssI2
(dp392
I184
(dp393
sI3
(dp394
sI133
(dp395
ssI3
(dp396
I184
(dp397
sI2
g394
sI133
(dp398
ssI8
(dp399
I200
(dp400
sI173
(dp401
sI14
(dp402
sI81
(dp403
sI53
(dp404
sI54
(dp405
ssI9
(dp406
I120
(dp407
sI124
(dp408
sI108
(dp409
sI165
(dp410
sI143
(dp411
ssI14
(dp412
I8
g402
sI173
(dp413
sI81
(dp414
sI54
(dp415
sI55
(dp416
sI200
(dp417
ssI18
(dp418
I305
(dp419
ssI24
(dp420
I241
(dp421
ssI28
(dp422
I37
(dp423
sI29
(dp424
sI86
(dp425
sI151
(dp426
sI59
(dp427
sI221
(dp428
ssI29
(dp429
I37
(dp430
sI86
(dp431
sI151
(dp432
sI59
(dp433
sI28
g424
sI221
(dp434
ssI30
(dp435
I113
(dp436
sI123
(dp437
sI125
(dp438
sI70
(dp439
sI153
(dp440
ssI32
(dp441
I192
(dp442
sI317
(dp443
ssI35
(dp444
I50
(dp445
sI322
(dp446
ssI36
(dp447
I104
(dp448
sI105
(dp449
sI287
(dp450
sI236
(dp451
sI199
(dp452
ssI37
(dp453
I29
g430
sI86
(dp454
sI151
(dp455
sI59
(dp456
sI28
g423
sI221
(dp457
ssI50
(dp458
I322
(dp459
sI35
g445
ssI53
(dp460
I8
g404
sI289
(dp461
ssI54
(dp462
I8
g405
sI81
(dp463
sI173
(dp464
sI14
g415
sI55
(dp465
ssI55
(dp466
I200
(dp467
sI81
(dp468
sI54
g465
sI14
g416
sI173
(dp469
ssI59
(dp470
I37
g456
sI29
g433
sI86
(dp471
sI151
(dp472
sI28
g427
sI221
(dp473
ssI63
(dp474
I190
(dp475
ssI69
(dp476
I181
(dp477
ssI70
(dp478
I113
(dp479
sI123
(dp480
sI125
(dp481
sI30
g439
sI153
(dp482
ssI78
(dp483
I308
(dp484
ssI81
(dp485
I8
g403
sI173
(dp486
sI14
g414
sI200
(dp487
sI54
g463
sI55
g468
ssI86
(dp488
I37
g454
sI29
g431
sI151
(dp489
sI59
g471
sI28
g425
sI221
(dp490
ssI96
(dp491
I264
(dp492
sI321
(dp493
ssI98
(dp494
I191
(dp495
ssI100
(dp496
I113
(dp497
ssI102
(dp498
I276
(dp499
ssI104
(dp500
I105
(dp501
sI36
g448
sI287
(dp502
ssI105
(dp503
I104
g501
sI236
(dp504
sI287
(dp505
sI36
g449
sI199
(dp506
ssI108
(dp507
I120
(dp508
sI9
g409
sI124
(dp509
ssI113
(dp510
I131
(dp511
sI100
g497
sI70
g479
sI123
(dp512
sI125
(dp513
sI30
g436
ssI115
(dp514
I147
(dp515
ssI116
(dp516
I323
(dp517
sI195
(dp518
sI207
(dp519
ssI120
(dp520
I165
(dp521
sI9
g407
sI108
g508
sI143
(dp522
sI152
(dp523
sI124
(dp524
sI191
(dp525
ssI123
(dp526
I131
(dp527
sI70
g480
sI113
g512
sI153
(dp528
sI125
(dp529
sI30
g437
ssI124
(dp530
I120
g524
sI9
g408
sI108
g509
sI165
(dp531
sI143
(dp532
ssI125
(dp533
I131
(dp534
sI70
g481
sI113
g513
sI153
(dp535
sI123
g529
sI30
g438
ssI131
(dp536
I113
g511
sI123
g527
sI125
g534
sI153
(dp537
ssI133
(dp538
I184
(dp539
sI2
g395
sI3
g398
ssI137
(dp540
I241
(dp541
sI204
(dp542
sI143
(dp543
ssI140
(dp544
I242
(dp545
ssI143
(dp546
I241
(dp547
sI9
g411
sI204
(dp548
sI176
(dp549
sI152
(dp550
sI137
g543
sI120
g522
sI185
(dp551
sI124
g532
sI191
(dp552
ssI147
(dp553
I115
g515
ssI151
(dp554
I37
g455
sI29
g432
sI86
g489
sI59
g472
sI28
g426
sI221
(dp555
ssI152
(dp556
I120
g523
sI191
(dp557
sI143
g550
ssI153
(dp558
I131
g537
sI70
g482
sI276
(dp559
sI123
g528
sI125
g535
sI30
g440
ssI156
(dp560
I161
(dp561
ssI160
(dp562
I297
(dp563
ssI161
(dp564
I156
g561
ssI165
(dp565
I120
g521
sI9
g410
sI124
g531
ssI173
(dp566
I8
g401
sI14
g413
sI81
g486
sI54
g464
sI55
g469
sI200
(dp567
ssI176
(dp568
I143
g549
ssI181
(dp569
I69
g477
ssI184
(dp570
I2
g393
sI3
g397
sI133
g539
ssI185
(dp571
I143
g551
ssI190
(dp572
I63
g475
ssI191
(dp573
I152
g557
sI120
g525
sI98
g495
sI143
g552
ssI192
(dp574
I32
g442
sI317
(dp575
ssI195
(dp576
I116
g518
ssI199
(dp577
I105
g506
sI36
g452
sI287
(dp578
ssI200
(dp579
I8
g400
sI81
g487
sI173
g567
sI14
g417
sI55
g467
ssI204
(dp580
I137
g542
sI241
(dp581
sI143
g548
ssI207
(dp582
I116
g519
ssI208
(dp583
I262
(dp584
sI238
(dp585
ssI218
(dp586
I279
(dp587
ssI221
(dp588
I37
g457
sI86
g490
sI151
g555
sI59
g473
sI28
g428
sI29
g434
ssI236
(dp589
I105
g504
sI36
g451
sI287
(dp590
ssI238
(dp591
I208
g585
sI262
(dp592
ssI241
(dp593
I24
g421
sI137
g541
sI204
g581
sI143
g547
ssI242
(dp594
I140
g545
ssI254
(dp595
I288
(dp596
sI301
(dp597
ssI262
(dp598
I208
g584
sI238
g592
ssI264
(dp599
I96
g492
sI321
(dp600
ssI276
(dp601
I153
g559
sI102
g499
ssI279
(dp602
I218
g587
ssI283
(dp603
I305
(dp604
ssI287
(dp605
I104
g502
sI105
g505
sI36
g450
sI236
g590
sI199
g578
ssI288
(dp606
I301
(dp607
sI254
g596
ssI289
(dp608
I1
g391
sI53
g461
ssI297
(dp609
I160
g563
ssI301
(dp610
I288
g607
sI254
g597
ssI305
(dp611
I18
g419
sI283
g604
ssI308
(dp612
I78
g484
ssI317
(dp613
I32
g443
sI192
g575
ssI321
(dp614
I96
g493
sI264
g600
ssI322
(dp615
I50
g459
sI35
g446
ssI323
(dp616
I116
g517
sssg291
(dp617
sg293
g86
sg294
g389
sbag1
(g2
g3
Ntp618
Rp619
(dp620
g7
(dp621
I2
(dp622
sI3
(dp623
sI5
(dp624
sI7
(dp625
sI8
(dp626
sI15
(dp627
sI17
(dp628
sI18
(dp629
sI20
(dp630
sI23
(dp631
sI24
(dp632
sI28
(dp633
sI29
(dp634
sI30
(dp635
sI31
(dp636
sI32
(dp637
sI35
(dp638
sI36
(dp639
sI37
(dp640
sI39
(dp641
sI46
(dp642
sI47
(dp643
sI48
(dp644
sI50
(dp645
sI52
(dp646
sI53
(dp647
sI54
(dp648
sI55
(dp649
sI59
(dp650
sI63
(dp651
sI64
(dp652
sI66
(dp653
sI68
(dp654
sI70
(dp655
sI75
(dp656
sI78
(dp657
sI83
(dp658
sI84
(dp659
sI85
(dp660
sI86
(dp661
sI90
(dp662
sI95
(dp663
sI98
(dp664
sI100
(dp665
sI102
(dp666
sI111
(dp667
sI113
(dp668
sI115
(dp669
sI116
(dp670
sI117
(dp671
sI120
(dp672
sI127
(dp673
sI130
(dp674
sI131
(dp675
sI132
(dp676
sI133
(dp677
sI135
(dp678
sI137
(dp679
sI138
(dp680
sI139
(dp681
sI140
(dp682
sI142
(dp683
sI143
(dp684
sI147
(dp685
sI149
(dp686
sI151
(dp687
sI152
(dp688
sI153
(dp689
sI156
(dp690
sI158
(dp691
sI160
(dp692
sI180
(dp693
sI184
(dp694
sI187
(dp695
sI190
(dp696
sI191
(dp697
sI192
(dp698
sI195
(dp699
sI199
(dp700
sI200
(dp701
sI204
(dp702
sI206
(dp703
sI207
(dp704
sI208
(dp705
sI210
(dp706
sI212
(dp707
sI216
(dp708
sI219
(dp709
sI221
(dp710
sI224
(dp711
sI230
(dp712
sI232
(dp713
sI237
(dp714
sI238
(dp715
sI241
(dp716
sI242
(dp717
sI245
(dp718
sI246
(dp719
sI250
(dp720
sI254
(dp721
sI261
(dp722
sI262
(dp723
sI264
(dp724
sI268
(dp725
sI270
(dp726
sI272
(dp727
sI276
(dp728
sI282
(dp729
sI284
(dp730
sI287
(dp731
sI288
(dp732
sI289
(dp733
sI295
(dp734
sI297
(dp735
sI298
(dp736
sI299
(dp737
sI300
(dp738
sI301
(dp739
sI306
(dp740
sI311
(dp741
sI312
(dp742
sI317
(dp743
sI318
(dp744
sI319
(dp745
sI322
(dp746
sI323
(dp747
sI324
(dp748
ssg85
g86
sg87
g86
sg88
(dp749
I2
(dp750
I184
(dp751
sI3
(dp752
sI133
(dp753
ssI3
(dp754
I2
g752
sI133
(dp755
ssI5
(dp756
I52
(dp757
ssI7
(dp758
I324
(dp759
ssI8
(dp760
I55
(dp761
ssI15
(dp762
I306
(dp763
sI83
(dp764
sI142
(dp765
ssI17
(dp766
I312
(dp767
ssI18
(dp768
I270
(dp769
ssI20
(dp770
I192
(dp771
ssI23
(dp772
I66
(dp773
ssI24
(dp774
I68
(dp775
ssI28
(dp776
I37
(dp777
sI29
(dp778
sI86
(dp779
sI151
(dp780
sI59
(dp781
sI221
(dp782
ssI29
(dp783
I37
(dp784
sI86
(dp785
sI151
(dp786
sI59
(dp787
sI28
g778
sI221
(dp788
ssI30
(dp789
I131
(dp790
sI102
(dp791
sI298
(dp792
sI276
(dp793
sI245
(dp794
sI31
(dp795
ssI31
(dp796
I298
(dp797
sI276
(dp798
sI102
(dp799
sI30
g795
ssI32
(dp800
I192
(dp801
sI317
(dp802
sI52
(dp803
sI85
(dp804
sI237
(dp805
ssI35
(dp806
I50
(dp807
sI322
(dp808
ssI36
(dp809
I287
(dp810
sI199
(dp811
ssI37
(dp812
I29
g784
sI86
(dp813
sI151
(dp814
sI59
(dp815
sI28
g777
sI221
(dp816
ssI39
(dp817
I153
(dp818
sI70
(dp819
ssI46
(dp820
I282
(dp821
sI95
(dp822
sI156
(dp823
sI187
(dp824
sI47
(dp825
ssI47
(dp826
I282
(dp827
sI187
(dp828
sI156
(dp829
sI46
g825
sI95
(dp830
ssI48
(dp831
I224
(dp832
sI130
(dp833
sI84
(dp834
sI158
(dp835
sI319
(dp836
ssI50
(dp837
I322
(dp838
sI35
g807
ssI52
(dp839
I32
g803
sI192
(dp840
sI237
(dp841
sI5
g757
sI85
(dp842
ssI53
(dp843
I289
(dp844
ssI54
(dp845
I200
(dp846
ssI55
(dp847
I8
g761
ssI59
(dp848
I37
g815
sI29
g787
sI86
(dp849
sI151
(dp850
sI28
g781
sI221
(dp851
ssI63
(dp852
I190
(dp853
ssI64
(dp854
I219
(dp855
ssI66
(dp856
I23
g773
ssI68
(dp857
I24
g775
ssI70
(dp858
I153
(dp859
sI268
(dp860
sI39
g819
ssI75
(dp861
I143
(dp862
ssI78
(dp863
I127
(dp864
ssI83
(dp865
I306
(dp866
sI142
(dp867
sI15
g764
ssI84
(dp868
I48
g834
sI224
(dp869
sI130
(dp870
sI158
(dp871
sI319
(dp872
ssI85
(dp873
I32
g804
sI192
(dp874
sI52
g842
sI237
(dp875
ssI86
(dp876
I37
g813
sI29
g785
sI151
(dp877
sI59
g849
sI28
g779
sI221
(dp878
ssI90
(dp879
I216
(dp880
ssI95
(dp881
I282
(dp882
sI187
(dp883
sI156
(dp884
sI46
g822
sI47
g830
ssI98
(dp885
I191
(dp886
ssI100
(dp887
I113
(dp888
sI206
(dp889
ssI102
(dp890
I298
(dp891
sI276
(dp892
sI30
g791
sI31
g799
ssI111
(dp893
I210
(dp894
sI139
(dp895
sI250
(dp896
ssI113
(dp897
I100
g888
ssI115
(dp898
I147
(dp899
ssI116
(dp900
I311
(dp901
sI207
(dp902
ssI117
(dp903
I138
(dp904
sI299
(dp905
sI135
(dp906
ssI120
(dp907
I152
(dp908
sI191
(dp909
ssI127
(dp910
I78
g864
ssI130
(dp911
I48
g833
sI224
(dp912
sI84
g870
sI158
(dp913
sI319
(dp914
ssI131
(dp915
I245
(dp916
sI30
g790
ssI132
(dp917
I288
(dp918
sI301
(dp919
sI272
(dp920
sI212
(dp921
sI318
(dp922
sI246
(dp923
sI180
(dp924
sI254
(dp925
ssI133
(dp926
I2
g753
sI3
g755
ssI135
(dp927
I138
(dp928
sI299
(dp929
sI117
g906
ssI137
(dp930
I241
(dp931
sI204
(dp932
sI143
(dp933
ssI138
(dp934
I299
(dp935
sI295
(dp936
sI284
(dp937
sI117
g904
sI135
g928
ssI139
(dp938
I210
(dp939
sI250
(dp940
sI111
g895
ssI140
(dp941
I242
(dp942
ssI142
(dp943
I306
(dp944
sI83
g867
sI15
g765
ssI143
(dp945
I152
(dp946
sI137
g933
sI75
g862
sI241
(dp947
sI191
(dp948
ssI147
(dp949
I115
g899
ssI149
(dp950
I232
(dp951
ssI151
(dp952
I37
g814
sI29
g786
sI86
g877
sI59
g850
sI28
g780
sI221
(dp953
ssI152
(dp954
I120
g908
sI191
(dp955
sI143
g946
ssI153
(dp956
I276
(dp957
sI268
(dp958
sI70
g859
sI39
g818
ssI156
(dp959
I282
(dp960
sI47
g829
sI187
(dp961
sI46
g823
sI95
g884
ssI158
(dp962
I48
g835
sI224
(dp963
sI130
g913
sI84
g871
sI319
(dp964
ssI160
(dp965
I297
(dp966
ssI180
(dp967
I288
(dp968
sI132
g924
sI301
(dp969
sI272
(dp970
sI212
(dp971
sI318
(dp972
sI246
(dp973
sI254
(dp974
ssI184
(dp975
I2
g751
ssI187
(dp976
I282
(dp977
sI47
g828
sI156
g961
sI46
g824
sI95
g883
ssI190
(dp978
I63
g853
ssI191
(dp979
I152
g955
sI120
g909
sI98
g886
sI143
g948
ssI192
(dp980
I32
g801
sI52
g840
sI20
g771
sI85
g874
sI237
(dp981
ssI195
(dp982
I323
(dp983
ssI199
(dp984
I36
g811
sI287
(dp985
ssI200
(dp986
I54
g846
ssI204
(dp987
I137
g932
sI241
(dp988
ssI206
(dp989
I100
g889
ssI207
(dp990
I116
g902
ssI208
(dp991
I262
(dp992
sI238
(dp993
ssI210
(dp994
I250
(dp995
sI139
g939
sI111
g894
ssI212
(dp996
I288
(dp997
sI132
g921
sI301
(dp998
sI272
(dp999
sI180
g971
sI318
(dp1000
sI246
(dp1001
sI254
(dp1002
ssI216
(dp1003
I90
g880
ssI219
(dp1004
I64
g855
ssI221
(dp1005
I37
g816
sI86
g878
sI151
g953
sI59
g851
sI28
g782
sI29
g788
ssI224
(dp1006
I48
g832
sI130
g912
sI84
g869
sI158
g963
sI319
(dp1007
ssI230
(dp1008
I264
(dp1009
ssI232
(dp1010
I149
g951
ssI237
(dp1011
I32
g805
sI192
g981
sI52
g841
sI85
g875
ssI238
(dp1012
I208
g993
sI262
(dp1013
ssI241
(dp1014
I137
g931
sI204
g988
sI143
g947
ssI242
(dp1015
I140
g942
ssI245
(dp1016
I131
g916
sI30
g794
ssI246
(dp1017
I288
(dp1018
sI132
g923
sI301
(dp1019
sI272
(dp1020
sI180
g973
sI318
(dp1021
sI212
g1001
sI254
(dp1022
ssI250
(dp1023
I210
g995
sI139
g940
sI111
g896
ssI254
(dp1024
I288
(dp1025
sI132
g925
sI301
(dp1026
sI272
(dp1027
sI180
g974
sI246
g1022
sI212
g1002
sI318
(dp1028
ssI261
(dp1029
I264
(dp1030
ssI262
(dp1031
I208
g992
sI238
g1013
ssI264
(dp1032
I300
(dp1033
sI261
g1030
sI230
g1009
ssI268
(dp1034
I153
g958
sI70
g860
ssI270
(dp1035
I18
g769
ssI272
(dp1036
I288
(dp1037
sI132
g920
sI301
(dp1038
sI180
g970
sI318
(dp1039
sI246
g1020
sI212
g999
sI254
g1027
ssI276
(dp1040
I153
g957
sI298
(dp1041
sI30
g793
sI102
g892
sI31
g798
ssI282
(dp1042
I47
g827
sI156
g960
sI187
g977
sI46
g821
sI95
g882
ssI284
(dp1043
I138
g937
sI295
(dp1044
ssI287
(dp1045
I36
g810
sI199
g985
ssI288
(dp1046
I132
g918
sI301
(dp1047
sI272
g1037
sI180
g968
sI318
(dp1048
sI246
g1018
sI212
g997
sI254
g1025
ssI289
(dp1049
I53
g844
ssI295
(dp1050
I138
g936
sI284
g1044
ssI297
(dp1051
I160
g966
ssI298
(dp1052
I276
g1041
sI30
g792
sI102
g891
sI31
g797
ssI299
(dp1053
I138
g935
sI117
g905
sI135
g929
ssI300
(dp1054
I264
g1033
ssI301
(dp1055
I288
g1047
sI132
g919
sI272
g1038
sI180
g969
sI318
(dp1056
sI246
g1019
sI212
g998
sI254
g1026
ssI306
(dp1057
I83
g866
sI142
g944
sI15
g763
ssI311
(dp1058
I116
g901
ssI312
(dp1059
I17
g767
ssI317
(dp1060
I32
g802
ssI318
(dp1061
I288
g1048
sI132
g922
sI301
g1056
sI272
g1039
sI180
g972
sI246
g1021
sI212
g1000
sI254
g1028
ssI319
(dp1062
I48
g836
sI224
g1007
sI130
g914
sI84
g872
sI158
g964
ssI322
(dp1063
I50
g838
sI35
g808
ssI323
(dp1064
I195
g983
ssI324
(dp1065
I7
g759
sssg291
(dp1066
sg293
g86
sg294
g749
sbag1
(g2
g3
Ntp1067
Rp1068
(dp1069
g7
(dp1070
I0
(dp1071
sI1
(dp1072
sI3
(dp1073
sI4
(dp1074
sI5
(dp1075
sI7
(dp1076
sI8
(dp1077
sI9
(dp1078
sI11
(dp1079
sI15
(dp1080
sI23
(dp1081
sI30
(dp1082
sI31
(dp1083
sI32
(dp1084
sI35
(dp1085
sI39
(dp1086
sI44
(dp1087
sI46
(dp1088
sI47
(dp1089
sI48
(dp1090
sI49
(dp1091
sI50
(dp1092
sI52
(dp1093
sI54
(dp1094
sI55
(dp1095
sI63
(dp1096
sI65
(dp1097
sI66
(dp1098
sI70
(dp1099
sI83
(dp1100
sI84
(dp1101
sI85
(dp1102
sI90
(dp1103
sI95
(dp1104
sI96
(dp1105
sI100
(dp1106
sI102
(dp1107
sI104
(dp1108
sI108
(dp1109
sI111
(dp1110
sI113
(dp1111
sI115
(dp1112
sI116
(dp1113
sI117
(dp1114
sI130
(dp1115
sI131
(dp1116
sI132
(dp1117
sI133
(dp1118
sI135
(dp1119
sI138
(dp1120
sI139
(dp1121
sI140
(dp1122
sI142
(dp1123
sI143
(dp1124
sI145
(dp1125
sI147
(dp1126
sI152
(dp1127
sI153
(dp1128
sI156
(dp1129
sI157
(dp1130
sI158
(dp1131
sI163
(dp1132
sI165
(dp1133
sI168
(dp1134
sI170
(dp1135
sI176
(dp1136
sI180
(dp1137
sI183
(dp1138
sI184
(dp1139
sI187
(dp1140
sI189
(dp1141
sI190
(dp1142
sI191
(dp1143
sI192
(dp1144
sI195
(dp1145
sI198
(dp1146
sI199
(dp1147
sI200
(dp1148
sI206
(dp1149
sI207
(dp1150
sI210
(dp1151
sI212
(dp1152
sI216
(dp1153
sI217
(dp1154
sI224
(dp1155
sI225
(dp1156
sI230
(dp1157
sI236
(dp1158
sI237
(dp1159
sI242
(dp1160
sI243
(dp1161
sI245
(dp1162
sI246
(dp1163
sI250
(dp1164
sI252
(dp1165
sI254
(dp1166
sI261
(dp1167
sI263
(dp1168
sI264
(dp1169
sI265
(dp1170
sI268
(dp1171
sI271
(dp1172
sI272
(dp1173
sI276
(dp1174
sI282
(dp1175
sI284
(dp1176
sI288
(dp1177
sI290
(dp1178
sI293
(dp1179
sI295
(dp1180
sI298
(dp1181
sI299
(dp1182
sI301
(dp1183
sI306
(dp1184
sI307
(dp1185
sI311
(dp1186
sI317
(dp1187
sI318
(dp1188
sI319
(dp1189
sI321
(dp1190
sI322
(dp1191
sI323
(dp1192
sI324
(dp1193
ssg85
g86
sg87
g86
sg88
(dp1194
I0
(dp1195
I192
(dp1196
sI145
(dp1197
sI242
(dp1198
sI52
(dp1199
sI85
(dp1200
sI317
(dp1201
ssI1
(dp1202
I293
(dp1203
ssI3
(dp1204
I184
(dp1205
sI321
(dp1206
sI133
(dp1207
ssI4
(dp1208
I198
(dp1209
ssI5
(dp1210
I96
(dp1211
sI52
(dp1212
ssI7
(dp1213
I324
(dp1214
sI191
(dp1215
ssI8
(dp1216
I55
(dp1217
ssI9
(dp1218
I143
(dp1219
ssI11
(dp1220
I44
(dp1221
ssI15
(dp1222
I306
(dp1223
sI83
(dp1224
sI142
(dp1225
ssI23
(dp1226
I66
(dp1227
ssI30
(dp1228
I131
(dp1229
sI102
(dp1230
sI298
(dp1231
sI276
(dp1232
sI245
(dp1233
sI31
(dp1234
ssI31
(dp1235
I276
(dp1236
sI102
(dp1237
sI30
g1234
ssI32
(dp1238
I52
(dp1239
sI85
(dp1240
sI237
(dp1241
ssI35
(dp1242
I322
(dp1243
ssI39
(dp1244
I153
(dp1245
sI70
(dp1246
ssI44
(dp1247
I11
g1221
ssI46
(dp1248
I282
(dp1249
sI95
(dp1250
sI156
(dp1251
sI187
(dp1252
sI47
(dp1253
ssI47
(dp1254
I282
(dp1255
sI187
(dp1256
sI156
(dp1257
sI46
g1253
sI95
(dp1258
ssI48
(dp1259
I224
(dp1260
sI130
(dp1261
sI84
(dp1262
sI158
(dp1263
sI319
(dp1264
ssI49
(dp1265
I104
(dp1266
sI236
(dp1267
sI199
(dp1268
ssI50
(dp1269
I322
(dp1270
ssI52
(dp1271
I32
g1239
sI0
g1199
sI5
g1212
sI192
(dp1272
sI237
(dp1273
sI145
(dp1274
sI242
(dp1275
sI85
(dp1276
sI317
(dp1277
ssI54
(dp1278
I200
(dp1279
ssI55
(dp1280
I8
g1217
ssI63
(dp1281
I190
(dp1282
ssI65
(dp1283
I264
(dp1284
sI116
(dp1285
sI189
(dp1286
sI230
(dp1287
sI207
(dp1288
ssI66
(dp1289
I23
g1227
ssI70
(dp1290
I153
(dp1291
sI268
(dp1292
sI39
g1246
ssI83
(dp1293
I306
(dp1294
sI142
(dp1295
sI15
g1224
ssI84
(dp1296
I48
g1262
sI130
(dp1297
sI158
(dp1298
sI319
(dp1299
ssI85
(dp1300
I32
g1240
sI0
g1200
sI192
(dp1301
sI237
(dp1302
sI145
(dp1303
sI242
(dp1304
sI52
g1276
sI317
(dp1305
ssI90
(dp1306
I216
(dp1307
ssI95
(dp1308
I282
(dp1309
sI187
(dp1310
sI156
(dp1311
sI46
g1250
sI47
g1258
ssI96
(dp1312
I5
g1211
ssI100
(dp1313
I206
(dp1314
ssI102
(dp1315
I298
(dp1316
sI206
(dp1317
sI113
(dp1318
sI276
(dp1319
sI252
(dp1320
sI30
g1230
sI31
g1237
ssI104
(dp1321
I49
g1266
sI236
(dp1322
sI199
(dp1323
ssI108
(dp1324
I176
(dp1325
sI271
(dp1326
sI163
(dp1327
sI165
(dp1328
sI143
(dp1329
ssI111
(dp1330
I210
(dp1331
sI139
(dp1332
sI250
(dp1333
ssI113
(dp1334
I252
(dp1335
sI206
(dp1336
sI102
g1318
ssI115
(dp1337
I147
(dp1338
ssI116
(dp1339
I65
g1285
sI207
(dp1340
ssI117
(dp1341
I138
(dp1342
sI299
(dp1343
sI135
(dp1344
ssI130
(dp1345
I48
g1261
sI84
g1297
sI158
(dp1346
sI319
(dp1347
ssI131
(dp1348
I245
(dp1349
sI30
g1229
ssI132
(dp1350
I288
(dp1351
sI301
(dp1352
sI272
(dp1353
sI212
(dp1354
sI318
(dp1355
sI246
(dp1356
sI180
(dp1357
sI254
(dp1358
ssI133
(dp1359
I184
(dp1360
sI321
(dp1361
sI3
g1207
ssI135
(dp1362
I138
(dp1363
sI299
(dp1364
sI117
g1344
ssI138
(dp1365
I299
(dp1366
sI295
(dp1367
sI284
(dp1368
sI117
g1342
sI135
g1363
ssI139
(dp1369
I210
(dp1370
sI250
(dp1371
sI111
g1332
ssI140
(dp1372
I242
(dp1373
ssI142
(dp1374
I225
(dp1375
sI306
(dp1376
sI83
g1295
sI15
g1225
ssI143
(dp1377
I163
(dp1378
sI165
(dp1379
sI9
g1219
sI108
g1329
sI271
(dp1380
sI176
(dp1381
ssI145
(dp1382
I0
g1197
sI192
(dp1383
sI52
g1274
sI85
g1303
sI317
(dp1384
ssI147
(dp1385
I115
g1338
ssI152
(dp1386
I168
(dp1387
sI307
(dp1388
sI271
(dp1389
ssI153
(dp1390
I70
g1291
sI39
g1245
ssI156
(dp1391
I282
(dp1392
sI47
g1257
sI187
(dp1393
sI46
g1251
sI95
g1311
ssI157
(dp1394
I190
(dp1395
ssI158
(dp1396
I48
g1263
sI224
(dp1397
sI130
g1346
sI84
g1298
sI319
(dp1398
ssI163
(dp1399
I176
(dp1400
sI271
(dp1401
sI108
g1327
sI165
(dp1402
sI143
g1378
ssI165
(dp1403
I176
(dp1404
sI271
(dp1405
sI163
g1402
sI108
g1328
sI143
g1379
ssI168
(dp1406
I152
g1387
sI307
(dp1407
sI271
(dp1408
ssI170
(dp1409
I324
(dp1410
sI263
(dp1411
ssI176
(dp1412
I271
(dp1413
sI163
g1400
sI108
g1325
sI165
g1404
sI143
g1381
ssI180
(dp1414
I288
(dp1415
sI132
g1357
sI301
(dp1416
sI272
(dp1417
sI212
(dp1418
sI318
(dp1419
sI246
(dp1420
sI254
(dp1421
ssI183
(dp1422
I243
(dp1423
ssI184
(dp1424
I321
(dp1425
sI3
g1205
sI133
g1360
ssI187
(dp1426
I282
(dp1427
sI47
g1256
sI156
g1393
sI46
g1252
sI95
g1310
ssI189
(dp1428
I264
(dp1429
sI65
g1286
sI230
(dp1430
sI207
(dp1431
ssI190
(dp1432
I157
g1395
sI63
g1282
ssI191
(dp1433
I7
g1215
ssI192
(dp1434
I0
g1196
sI237
(dp1435
sI145
g1383
sI242
(dp1436
sI52
g1272
sI85
g1301
sI317
(dp1437
ssI195
(dp1438
I323
(dp1439
sI311
(dp1440
ssI198
(dp1441
I4
g1209
ssI199
(dp1442
I104
g1323
sI49
g1268
sI236
(dp1443
ssI200
(dp1444
I54
g1279
ssI206
(dp1445
I113
g1336
sI100
g1314
sI252
(dp1446
sI102
g1317
ssI207
(dp1447
I264
(dp1448
sI65
g1288
sI116
g1340
sI189
g1431
sI230
(dp1449
ssI210
(dp1450
I250
(dp1451
sI139
g1370
sI111
g1331
ssI212
(dp1452
I288
(dp1453
sI132
g1354
sI301
(dp1454
sI272
(dp1455
sI180
g1418
sI318
(dp1456
sI246
(dp1457
sI254
(dp1458
ssI216
(dp1459
I90
g1307
ssI217
(dp1460
I268
(dp1461
ssI224
(dp1462
I48
g1260
sI158
g1397
sI319
(dp1463
ssI225
(dp1464
I142
g1375
ssI230
(dp1465
I264
(dp1466
sI65
g1287
sI189
g1430
sI207
g1449
ssI236
(dp1467
I104
g1322
sI49
g1267
sI199
g1443
ssI237
(dp1468
I32
g1241
sI192
g1435
sI52
g1273
sI85
g1302
ssI242
(dp1469
I0
g1198
sI140
g1373
sI192
g1436
sI52
g1275
sI85
g1304
ssI243
(dp1470
I183
g1423
ssI245
(dp1471
I131
g1349
sI30
g1233
ssI246
(dp1472
I288
(dp1473
sI132
g1356
sI301
(dp1474
sI272
(dp1475
sI180
g1420
sI318
(dp1476
sI212
g1457
sI254
(dp1477
ssI250
(dp1478
I210
g1451
sI139
g1371
sI268
(dp1479
sI111
g1333
ssI252
(dp1480
I113
g1335
sI206
g1446
sI102
g1320
ssI254
(dp1481
I288
(dp1482
sI132
g1358
sI301
(dp1483
sI272
(dp1484
sI180
g1421
sI246
g1477
sI212
g1458
sI318
(dp1485
ssI261
(dp1486
I264
(dp1487
ssI263
(dp1488
I170
g1411
sI324
(dp1489
ssI264
(dp1490
I65
g1284
sI261
g1487
sI189
g1429
sI230
g1466
sI207
g1448
ssI265
(dp1491
I290
(dp1492
ssI268
(dp1493
I217
g1461
sI250
g1479
sI70
g1292
ssI271
(dp1494
I163
g1401
sI165
g1405
sI168
g1408
sI108
g1326
sI143
g1380
sI176
g1413
sI307
(dp1495
sI152
g1389
ssI272
(dp1496
I288
(dp1497
sI132
g1353
sI301
(dp1498
sI180
g1417
sI318
(dp1499
sI246
g1475
sI212
g1455
sI254
g1484
ssI276
(dp1500
I30
g1232
sI102
g1319
sI31
g1236
ssI282
(dp1501
I47
g1255
sI156
g1392
sI187
g1427
sI46
g1249
sI95
g1309
ssI284
(dp1502
I138
g1368
sI295
(dp1503
ssI288
(dp1504
I132
g1351
sI301
(dp1505
sI272
g1497
sI180
g1415
sI318
(dp1506
sI246
g1473
sI212
g1453
sI254
g1482
ssI290
(dp1507
I265
g1492
ssI293
(dp1508
I1
g1203
ssI295
(dp1509
I138
g1367
sI284
g1503
ssI298
(dp1510
I30
g1231
sI102
g1316
ssI299
(dp1511
I138
g1366
sI117
g1343
sI135
g1364
ssI301
(dp1512
I288
g1505
sI132
g1352
sI272
g1498
sI180
g1416
sI318
(dp1513
sI246
g1474
sI212
g1454
sI254
g1483
ssI306
(dp1514
I83
g1294
sI142
g1376
sI15
g1223
ssI307
(dp1515
I152
g1388
sI168
g1407
sI271
g1495
ssI311
(dp1516
I323
(dp1517
sI195
g1440
ssI317
(dp1518
I192
g1437
sI0
g1201
sI52
g1277
sI85
g1305
sI145
g1384
ssI318
(dp1519
I288
g1506
sI132
g1355
sI301
g1513
sI272
g1499
sI180
g1419
sI246
g1476
sI212
g1456
sI254
g1485
ssI319
(dp1520
I48
g1264
sI224
g1463
sI130
g1347
sI84
g1299
sI158
g1398
ssI321
(dp1521
I184
g1425
sI3
g1206
sI133
g1361
ssI322
(dp1522
I50
g1270
sI35
g1243
ssI323
(dp1523
I195
g1439
sI311
g1517
ssI324
(dp1524
I170
g1410
sI263
g1489
sI7
g1214
sssg291
(dp1525
sg293
g86
sg294
g1194
sbag1
(g2
g3
Ntp1526
Rp1527
(dp1528
g7
(dp1529
I0
(dp1530
sI1
(dp1531
sI3
(dp1532
sI5
(dp1533
sI7
(dp1534
sI11
(dp1535
sI15
(dp1536
sI18
(dp1537
sI23
(dp1538
sI24
(dp1539
sI30
(dp1540
sI37
(dp1541
sI38
(dp1542
sI44
(dp1543
sI47
(dp1544
sI49
(dp1545
sI51
(dp1546
sI52
(dp1547
sI58
(dp1548
sI60
(dp1549
sI64
(dp1550
sI65
(dp1551
sI70
(dp1552
sI71
(dp1553
sI75
(dp1554
sI79
(dp1555
sI83
(dp1556
sI85
(dp1557
sI92
(dp1558
sI94
(dp1559
sI95
(dp1560
sI96
(dp1561
sI100
(dp1562
sI102
(dp1563
sI104
(dp1564
sI108
(dp1565
sI113
(dp1566
sI116
(dp1567
sI117
(dp1568
sI118
(dp1569
sI120
(dp1570
sI129
(dp1571
sI130
(dp1572
sI131
(dp1573
sI132
(dp1574
sI133
(dp1575
sI135
(dp1576
sI138
(dp1577
sI142
(dp1578
sI143
(dp1579
sI145
(dp1580
sI147
(dp1581
sI149
(dp1582
sI152
(dp1583
sI153
(dp1584
sI156
(dp1585
sI157
(dp1586
sI163
(dp1587
sI165
(dp1588
sI168
(dp1589
sI170
(dp1590
sI176
(dp1591
sI183
(dp1592
sI184
(dp1593
sI189
(dp1594
sI190
(dp1595
sI191
(dp1596
sI192
(dp1597
sI195
(dp1598
sI199
(dp1599
sI202
(dp1600
sI206
(dp1601
sI207
(dp1602
sI217
(dp1603
sI219
(dp1604
sI225
(dp1605
sI227
(dp1606
sI230
(dp1607
sI232
(dp1608
sI236
(dp1609
sI237
(dp1610
sI240
(dp1611
sI241
(dp1612
sI242
(dp1613
sI243
(dp1614
sI245
(dp1615
sI250
(dp1616
sI252
(dp1617
sI261
(dp1618
sI263
(dp1619
sI264
(dp1620
sI265
(dp1621
sI268
(dp1622
sI269
(dp1623
sI270
(dp1624
sI271
(dp1625
sI276
(dp1626
sI282
(dp1627
sI284
(dp1628
sI288
(dp1629
sI290
(dp1630
sI293
(dp1631
sI295
(dp1632
sI297
(dp1633
sI298
(dp1634
sI299
(dp1635
sI301
(dp1636
sI307
(dp1637
sI311
(dp1638
sI317
(dp1639
sI321
(dp1640
sI323
(dp1641
sI324
(dp1642
ssg85
g86
sg87
g86
sg88
(dp1643
I0
(dp1644
I192
(dp1645
sI145
(dp1646
sI242
(dp1647
sI52
(dp1648
sI85
(dp1649
sI317
(dp1650
ssI1
(dp1651
I202
(dp1652
sI293
(dp1653
ssI3
(dp1654
I184
(dp1655
sI321
(dp1656
sI133
(dp1657
ssI5
(dp1658
I96
(dp1659
ssI7
(dp1660
I191
(dp1661
ssI11
(dp1662
I147
(dp1663
sI44
(dp1664
sI37
(dp1665
ssI15
(dp1666
I83
(dp1667
sI142
(dp1668
ssI18
(dp1669
I270
(dp1670
ssI23
(dp1671
I113
(dp1672
sI153
(dp1673
ssI24
(dp1674
I241
(dp1675
ssI30
(dp1676
I298
(dp1677
sI102
(dp1678
ssI37
(dp1679
I44
(dp1680
sI11
g1665
sI147
(dp1681
ssI38
(dp1682
I118
(dp1683
sI79
(dp1684
ssI44
(dp1685
I11
g1664
sI147
(dp1686
sI37
g1680
ssI47
(dp1687
I282
(dp1688
sI156
(dp1689
ssI49
(dp1690
I104
(dp1691
sI236
(dp1692
ssI51
(dp1693
I130
(dp1694
ssI52
(dp1695
I0
g1648
sI192
(dp1696
sI145
(dp1697
sI242
(dp1698
sI85
(dp1699
sI317
(dp1700
ssI58
(dp1701
I298
(dp1702
sI131
(dp1703
sI276
(dp1704
sI70
(dp1705
ssI60
(dp1706
I227
(dp1707
ssI64
(dp1708
I219
(dp1709
ssI65
(dp1710
I264
(dp1711
sI207
(dp1712
sI189
(dp1713
sI261
(dp1714
ssI70
(dp1715
I276
(dp1716
sI58
g1705
sI131
(dp1717
sI268
(dp1718
sI298
(dp1719
ssI71
(dp1720
I132
(dp1721
ssI75
(dp1722
I143
(dp1723
ssI79
(dp1724
I38
g1684
ssI83
(dp1725
I142
(dp1726
sI15
g1667
ssI85
(dp1727
I0
g1649
sI192
(dp1728
sI145
(dp1729
sI242
(dp1730
sI52
g1699
sI317
(dp1731
ssI92
(dp1732
I297
(dp1733
ssI94
(dp1734
I135
(dp1735
ssI95
(dp1736
I282
(dp1737
ssI96
(dp1738
I5
g1659
ssI100
(dp1739
I268
(dp1740
ssI102
(dp1741
I298
(dp1742
sI206
(dp1743
sI113
(dp1744
sI245
(dp1745
sI153
(dp1746
sI252
(dp1747
sI30
g1678
ssI104
(dp1748
I49
g1691
sI236
(dp1749
sI199
(dp1750
ssI108
(dp1751
I176
(dp1752
sI271
(dp1753
sI163
(dp1754
sI165
(dp1755
sI143
(dp1756
ssI113
(dp1757
I153
(dp1758
sI252
(dp1759
sI206
(dp1760
sI102
g1744
sI23
g1672
ssI116
(dp1761
I323
(dp1762
ssI117
(dp1763
I138
(dp1764
sI299
(dp1765
ssI118
(dp1766
I38
g1683
ssI120
(dp1767
I143
(dp1768
ssI129
(dp1769
I270
(dp1770
sI135
(dp1771
ssI130
(dp1772
I51
g1694
ssI131
(dp1773
I58
g1703
sI276
(dp1774
sI298
(dp1775
sI70
g1717
ssI132
(dp1776
I71
g1721
ssI133
(dp1777
I184
(dp1778
sI321
(dp1779
sI3
g1657
ssI135
(dp1780
I129
g1771
sI270
(dp1781
sI94
g1735
ssI138
(dp1782
I299
(dp1783
sI284
(dp1784
sI117
g1764
sI295
(dp1785
ssI142
(dp1786
I225
(dp1787
sI83
g1726
sI15
g1668
ssI143
(dp1788
I163
(dp1789
sI165
(dp1790
sI75
g1723
sI108
g1756
sI271
(dp1791
sI176
(dp1792
sI120
g1768
ssI145
(dp1793
I0
g1646
sI52
g1697
sI85
g1729
sI317
(dp1794
ssI147
(dp1795
I11
g1663
sI44
g1686
sI37
g1681
ssI149
(dp1796
I232
(dp1797
ssI152
(dp1798
I168
(dp1799
sI271
(dp1800
ssI153
(dp1801
I113
g1758
sI245
(dp1802
sI102
g1746
sI23
g1673
ssI156
(dp1803
I282
(dp1804
sI47
g1689
ssI157
(dp1805
I190
(dp1806
ssI163
(dp1807
I176
(dp1808
sI271
(dp1809
sI108
g1754
sI165
(dp1810
sI143
g1789
ssI165
(dp1811
I176
(dp1812
sI271
(dp1813
sI163
g1810
sI108
g1755
sI143
g1790
ssI168
(dp1814
I152
g1799
sI307
(dp1815
sI271
(dp1816
ssI170
(dp1817
I324
(dp1818
sI263
(dp1819
ssI176
(dp1820
I271
(dp1821
sI163
g1808
sI108
g1752
sI165
g1812
sI143
g1792
ssI183
(dp1822
I243
(dp1823
ssI184
(dp1824
I321
(dp1825
sI3
g1655
sI133
g1778
ssI189
(dp1826
I264
(dp1827
sI65
g1713
sI230
(dp1828
sI207
(dp1829
ssI190
(dp1830
I157
g1806
ssI191
(dp1831
I7
g1661
ssI192
(dp1832
I0
g1645
sI242
(dp1833
sI52
g1696
sI85
g1728
sI317
(dp1834
ssI195
(dp1835
I311
(dp1836
ssI199
(dp1837
I104
g1750
sI236
(dp1838
ssI202
(dp1839
I1
g1652
sI293
(dp1840
ssI206
(dp1841
I113
g1760
sI252
(dp1842
sI102
g1743
ssI207
(dp1843
I65
g1712
sI189
g1829
ssI217
(dp1844
I268
(dp1845
ssI219
(dp1846
I64
g1709
ssI225
(dp1847
I142
g1787
ssI227
(dp1848
I60
g1707
ssI230
(dp1849
I189
g1828
ssI232
(dp1850
I149
g1797
ssI236
(dp1851
I104
g1749
sI49
g1692
sI199
g1838
ssI237
(dp1852
I240
(dp1853
ssI240
(dp1854
I237
g1853
ssI241
(dp1855
I24
g1675
ssI242
(dp1856
I0
g1647
sI192
g1833
sI52
g1698
sI85
g1730
ssI243
(dp1857
I183
g1823
ssI245
(dp1858
I153
g1802
sI102
g1745
ssI250
(dp1859
I268
(dp1860
ssI252
(dp1861
I113
g1759
sI206
g1842
sI102
g1747
ssI261
(dp1862
I264
(dp1863
sI65
g1714
ssI263
(dp1864
I170
g1819
sI324
(dp1865
ssI264
(dp1866
I65
g1711
sI189
g1827
sI261
g1863
ssI265
(dp1867
I290
(dp1868
ssI268
(dp1869
I217
g1845
sI250
g1860
sI100
g1740
sI70
g1718
ssI269
(dp1870
I290
(dp1871
ssI270
(dp1872
I129
g1770
sI18
g1670
sI135
g1781
ssI271
(dp1873
I163
g1809
sI165
g1813
sI168
g1816
sI108
g1753
sI143
g1791
sI176
g1821
sI307
(dp1874
sI152
g1800
ssI276
(dp1875
I58
g1704
sI131
g1774
sI298
(dp1876
sI70
g1716
ssI282
(dp1877
I47
g1688
sI156
g1804
sI95
g1737
ssI284
(dp1878
I138
g1784
sI295
(dp1879
ssI288
(dp1880
I301
(dp1881
ssI290
(dp1882
I265
g1868
sI269
g1871
ssI293
(dp1883
I1
g1653
sI202
g1840
ssI295
(dp1884
I138
g1785
sI284
g1879
ssI297
(dp1885
I92
g1733
ssI298
(dp1886
I131
g1775
sI70
g1719
sI102
g1742
sI276
g1876
sI58
g1702
sI30
g1677
ssI299
(dp1887
I138
g1783
sI117
g1765
ssI301
(dp1888
I288
g1881
ssI307
(dp1889
I168
g1815
sI271
g1874
ssI311
(dp1890
I323
(dp1891
sI195
g1836
ssI317
(dp1892
I192
g1834
sI0
g1650
sI52
g1700
sI85
g1731
sI145
g1794
ssI321
(dp1893
I184
g1825
sI3
g1656
sI133
g1779
ssI323
(dp1894
I116
g1762
sI311
g1891
ssI324
(dp1895
I170
g1818
sI263
g1865
sssg291
(dp1896
sg293
g86
sg294
g1643
sbag1
(g2
g3
Ntp1897
Rp1898
(dp1899
g7
(dp1900
I1
(dp1901
sI11
(dp1902
sI12
(dp1903
sI18
(dp1904
sI21
(dp1905
sI23
(dp1906
sI24
(dp1907
sI25
(dp1908
sI31
(dp1909
sI35
(dp1910
sI37
(dp1911
sI38
(dp1912
sI44
(dp1913
sI47
(dp1914
sI49
(dp1915
sI50
(dp1916
sI51
(dp1917
sI53
(dp1918
sI58
(dp1919
sI60
(dp1920
sI64
(dp1921
sI65
(dp1922
sI70
(dp1923
sI71
(dp1924
sI72
(dp1925
sI75
(dp1926
sI76
(dp1927
sI79
(dp1928
sI82
(dp1929
sI84
(dp1930
sI94
(dp1931
sI95
(dp1932
sI100
(dp1933
sI102
(dp1934
sI109
(dp1935
sI110
(dp1936
sI112
(dp1937
sI113
(dp1938
sI116
(dp1939
sI117
(dp1940
sI118
(dp1941
sI121
(dp1942
sI122
(dp1943
sI129
(dp1944
sI130
(dp1945
sI131
(dp1946
sI132
(dp1947
sI135
(dp1948
sI138
(dp1949
sI143
(dp1950
sI147
(dp1951
sI149
(dp1952
sI153
(dp1953
sI156
(dp1954
sI157
(dp1955
sI170
(dp1956
sI181
(dp1957
sI188
(dp1958
sI189
(dp1959
sI190
(dp1960
sI199
(dp1961
sI202
(dp1962
sI207
(dp1963
sI208
(dp1964
sI218
(dp1965
sI219
(dp1966
sI220
(dp1967
sI224
(dp1968
sI225
(dp1969
sI227
(dp1970
sI230
(dp1971
sI232
(dp1972
sI234
(dp1973
sI237
(dp1974
sI240
(dp1975
sI241
(dp1976
sI243
(dp1977
sI244
(dp1978
sI245
(dp1979
sI249
(dp1980
sI261
(dp1981
sI262
(dp1982
sI263
(dp1983
sI264
(dp1984
sI268
(dp1985
sI269
(dp1986
sI270
(dp1987
sI273
(dp1988
sI275
(dp1989
sI276
(dp1990
sI277
(dp1991
sI279
(dp1992
sI282
(dp1993
sI290
(dp1994
sI291
(dp1995
sI293
(dp1996
sI294
(dp1997
sI298
(dp1998
sI299
(dp1999
sI301
(dp2000
sI311
(dp2001
sI313
(dp2002
sI316
(dp2003
sI323
(dp2004
sI324
(dp2005
ssg85
g86
sg87
g86
sg88
(dp2006
I1
(dp2007
I202
(dp2008
sI293
(dp2009
ssI11
(dp2010
I275
(dp2011
sI220
(dp2012
sI147
(dp2013
sI44
(dp2014
sI37
(dp2015
ssI12
(dp2016
I234
(dp2017
ssI18
(dp2018
I270
(dp2019
ssI21
(dp2020
I264
(dp2021
ssI23
(dp2022
I153
(dp2023
sI113
(dp2024
sI31
(dp2025
ssI24
(dp2026
I241
(dp2027
ssI25
(dp2028
I112
(dp2029
sI273
(dp2030
sI291
(dp2031
sI294
(dp2032
sI313
(dp2033
ssI31
(dp2034
I23
g2025
ssI35
(dp2035
I50
(dp2036
ssI37
(dp2037
I44
(dp2038
sI11
g2015
sI147
(dp2039
ssI38
(dp2040
I118
(dp2041
sI79
(dp2042
ssI44
(dp2043
I11
g2014
sI147
(dp2044
sI37
g2038
ssI47
(dp2045
I282
(dp2046
sI156
(dp2047
ssI49
(dp2048
I199
(dp2049
ssI50
(dp2050
I35
g2036
ssI51
(dp2051
I72
(dp2052
sI188
(dp2053
sI109
(dp2054
sI181
(dp2055
ssI53
(dp2056
I94
(dp2057
sI135
(dp2058
ssI58
(dp2059
I298
(dp2060
sI131
(dp2061
sI276
(dp2062
sI70
(dp2063
ssI60
(dp2064
I227
(dp2065
ssI64
(dp2066
I219
(dp2067
ssI65
(dp2068
I264
(dp2069
sI116
(dp2070
sI189
(dp2071
sI261
(dp2072
ssI70
(dp2073
I58
g2063
sI131
(dp2074
sI276
(dp2075
sI298
(dp2076
ssI71
(dp2077
I132
(dp2078
ssI72
(dp2079
I51
g2052
sI188
(dp2080
sI109
(dp2081
sI181
(dp2082
ssI75
(dp2083
I143
(dp2084
ssI76
(dp2085
I264
(dp2086
ssI79
(dp2087
I38
g2042
ssI82
(dp2088
I301
(dp2089
ssI84
(dp2090
I224
(dp2091
sI130
(dp2092
ssI94
(dp2093
I316
(dp2094
sI53
g2057
sI135
(dp2095
ssI95
(dp2096
I122
(dp2097
sI130
(dp2098
ssI100
(dp2099
I268
(dp2100
ssI102
(dp2101
I153
(dp2102
sI245
(dp2103
ssI109
(dp2104
I72
g2081
sI51
g2054
sI188
(dp2105
sI181
(dp2106
ssI110
(dp2107
I268
(dp2108
sI245
(dp2109
ssI112
(dp2110
I25
g2029
sI291
(dp2111
sI313
(dp2112
sI294
(dp2113
sI273
(dp2114
ssI113
(dp2115
I153
(dp2116
sI23
g2024
ssI116
(dp2117
I65
g2070
sI311
(dp2118
sI135
(dp2119
ssI117
(dp2120
I138
(dp2121
sI299
(dp2122
ssI118
(dp2123
I38
g2041
ssI121
(dp2124
I243
(dp2125
ssI122
(dp2126
I130
(dp2127
sI95
g2097
ssI129
(dp2128
I270
(dp2129
sI135
(dp2130
ssI130
(dp2131
I224
(dp2132
sI122
g2127
sI84
g2092
sI95
g2098
ssI131
(dp2133
I58
g2061
sI276
(dp2134
sI298
(dp2135
sI70
g2074
ssI132
(dp2136
I71
g2078
ssI135
(dp2137
I129
g2130
sI270
(dp2138
sI116
g2119
sI53
g2058
sI249
(dp2139
sI316
(dp2140
sI94
g2095
ssI138
(dp2141
I299
(dp2142
sI117
g2121
ssI143
(dp2143
I75
g2084
ssI147
(dp2144
I11
g2013
sI44
g2044
sI37
g2039
ssI149
(dp2145
I232
(dp2146
ssI153
(dp2147
I113
g2116
sI245
(dp2148
sI102
g2102
sI23
g2023
ssI156
(dp2149
I282
(dp2150
sI47
g2047
ssI157
(dp2151
I190
(dp2152
ssI170
(dp2153
I324
(dp2154
sI263
(dp2155
ssI181
(dp2156
I72
g2082
sI51
g2055
sI188
(dp2157
sI109
g2106
ssI188
(dp2158
I72
g2080
sI51
g2053
sI181
g2157
sI109
g2105
ssI189
(dp2159
I264
(dp2160
sI65
g2071
ssI190
(dp2161
I157
g2152
ssI199
(dp2162
I49
g2049
ssI202
(dp2163
I1
g2008
sI293
(dp2164
ssI207
(dp2165
I225
(dp2166
ssI208
(dp2167
I262
(dp2168
ssI218
(dp2169
I279
(dp2170
ssI219
(dp2171
I64
g2067
ssI220
(dp2172
I275
(dp2173
sI11
g2012
ssI224
(dp2174
I130
g2132
sI84
g2091
ssI225
(dp2175
I207
g2166
ssI227
(dp2176
I60
g2065
ssI230
(dp2177
I264
(dp2178
ssI232
(dp2179
I149
g2146
ssI234
(dp2180
I12
g2017
ssI237
(dp2181
I240
(dp2182
ssI240
(dp2183
I237
g2182
ssI241
(dp2184
I24
g2027
ssI243
(dp2185
I121
g2125
ssI244
(dp2186
I277
(dp2187
ssI245
(dp2188
I153
g2148
sI268
(dp2189
sI110
g2109
sI102
g2103
ssI249
(dp2190
I135
g2139
ssI261
(dp2191
I264
(dp2192
sI65
g2072
ssI262
(dp2193
I208
g2168
ssI263
(dp2194
I170
g2155
sI324
(dp2195
ssI264
(dp2196
I65
g2069
sI323
(dp2197
sI261
g2192
sI230
g2178
sI76
g2086
sI21
g2021
sI189
g2160
ssI268
(dp2198
I100
g2100
sI245
g2189
sI110
g2108
ssI269
(dp2199
I290
(dp2200
ssI270
(dp2201
I129
g2129
sI18
g2019
sI135
g2138
ssI273
(dp2202
I112
g2114
sI25
g2030
sI291
(dp2203
sI294
(dp2204
sI313
(dp2205
ssI275
(dp2206
I11
g2011
sI220
g2173
ssI276
(dp2207
I58
g2062
sI131
g2134
sI298
(dp2208
sI70
g2075
ssI277
(dp2209
I244
g2187
ssI279
(dp2210
I218
g2170
ssI282
(dp2211
I156
g2150
sI47
g2046
ssI290
(dp2212
I269
g2200
ssI291
(dp2213
I112
g2111
sI25
g2031
sI313
(dp2214
sI294
(dp2215
sI273
g2203
ssI293
(dp2216
I1
g2009
sI202
g2164
ssI294
(dp2217
I112
g2113
sI25
g2032
sI291
g2215
sI313
(dp2218
sI273
g2204
ssI298
(dp2219
I58
g2060
sI131
g2135
sI276
g2208
sI70
g2076
ssI299
(dp2220
I138
g2142
sI117
g2122
ssI301
(dp2221
I82
g2089
ssI311
(dp2222
I116
g2118
ssI313
(dp2223
I112
g2112
sI25
g2033
sI291
g2214
sI294
g2218
sI273
g2205
ssI316
(dp2224
I94
g2094
sI135
g2140
ssI323
(dp2225
I264
g2197
ssI324
(dp2226
I170
g2154
sI263
g2195
sssg291
(dp2227
sg293
g86
sg294
g2006
sbag1
(g2
g3
Ntp2228
Rp2229
(dp2230
g7
(dp2231
I1
(dp2232
sI4
(dp2233
sI6
(dp2234
sI9
(dp2235
sI11
(dp2236
sI12
(dp2237
sI16
(dp2238
sI17
(dp2239
sI20
(dp2240
sI21
(dp2241
sI23
(dp2242
sI25
(dp2243
sI31
(dp2244
sI32
(dp2245
sI35
(dp2246
sI49
(dp2247
sI50
(dp2248
sI51
(dp2249
sI53
(dp2250
sI58
(dp2251
sI63
(dp2252
sI64
(dp2253
sI65
(dp2254
sI72
(dp2255
sI75
(dp2256
sI76
(dp2257
sI80
(dp2258
sI82
(dp2259
sI84
(dp2260
sI92
(dp2261
sI94
(dp2262
sI95
(dp2263
sI103
(dp2264
sI106
(dp2265
sI107
(dp2266
sI109
(dp2267
sI110
(dp2268
sI112
(dp2269
sI116
(dp2270
sI122
(dp2271
sI129
(dp2272
sI130
(dp2273
sI131
(dp2274
sI134
(dp2275
sI135
(dp2276
sI136
(dp2277
sI141
(dp2278
sI143
(dp2279
sI145
(dp2280
sI146
(dp2281
sI147
(dp2282
sI148
(dp2283
sI149
(dp2284
sI150
(dp2285
sI152
(dp2286
sI167
(dp2287
sI169
(dp2288
sI170
(dp2289
sI172
(dp2290
sI181
(dp2291
sI182
(dp2292
sI188
(dp2293
sI192
(dp2294
sI198
(dp2295
sI199
(dp2296
sI201
(dp2297
sI202
(dp2298
sI204
(dp2299
sI207
(dp2300
sI208
(dp2301
sI211
(dp2302
sI218
(dp2303
sI219
(dp2304
sI220
(dp2305
sI222
(dp2306
sI224
(dp2307
sI225
(dp2308
sI230
(dp2309
sI232
(dp2310
sI234
(dp2311
sI239
(dp2312
sI244
(dp2313
sI245
(dp2314
sI248
(dp2315
sI249
(dp2316
sI261
(dp2317
sI262
(dp2318
sI263
(dp2319
sI264
(dp2320
sI268
(dp2321
sI270
(dp2322
sI273
(dp2323
sI275
(dp2324
sI276
(dp2325
sI277
(dp2326
sI279
(dp2327
sI291
(dp2328
sI293
(dp2329
sI294
(dp2330
sI297
(dp2331
sI300
(dp2332
sI307
(dp2333
sI311
(dp2334
sI312
(dp2335
sI313
(dp2336
sI316
(dp2337
sI320
(dp2338
sI324
(dp2339
ssg85
g86
sg87
g86
sg88
(dp2340
I1
(dp2341
I202
(dp2342
sI293
(dp2343
ssI4
(dp2344
I320
(dp2345
sI82
(dp2346
sI198
(dp2347
ssI6
(dp2348
I192
(dp2349
sI307
(dp2350
sI20
(dp2351
sI141
(dp2352
sI134
(dp2353
ssI9
(dp2354
I143
(dp2355
ssI11
(dp2356
I275
(dp2357
sI220
(dp2358
ssI12
(dp2359
I234
(dp2360
ssI16
(dp2361
I80
(dp2362
sI264
(dp2363
sI300
(dp2364
sI150
(dp2365
sI103
(dp2366
ssI17
(dp2367
I312
(dp2368
sI146
(dp2369
ssI20
(dp2370
I192
(dp2371
sI307
(dp2372
sI134
(dp2373
sI6
g2351
sI141
(dp2374
ssI21
(dp2375
I136
(dp2376
sI169
(dp2377
sI264
(dp2378
ssI23
(dp2379
I31
(dp2380
ssI25
(dp2381
I291
(dp2382
sI294
(dp2383
sI112
(dp2384
sI273
(dp2385
sI311
(dp2386
sI313
(dp2387
ssI31
(dp2388
I23
g2380
ssI32
(dp2389
I192
(dp2390
sI145
(dp2391
ssI35
(dp2392
I50
(dp2393
ssI49
(dp2394
I199
(dp2395
ssI50
(dp2396
I35
g2393
ssI51
(dp2397
I72
(dp2398
sI188
(dp2399
sI109
(dp2400
sI181
(dp2401
ssI53
(dp2402
I94
(dp2403
sI135
(dp2404
ssI58
(dp2405
I131
(dp2406
ssI63
(dp2407
I248
(dp2408
sI172
(dp2409
sI107
(dp2410
sI148
(dp2411
sI222
(dp2412
ssI64
(dp2413
I219
(dp2414
ssI65
(dp2415
I116
(dp2416
sI270
(dp2417
ssI72
(dp2418
I51
g2398
sI188
(dp2419
sI109
(dp2420
sI181
(dp2421
ssI75
(dp2422
I143
(dp2423
ssI76
(dp2424
I264
(dp2425
sI201
(dp2426
ssI80
(dp2427
I16
g2362
sI264
(dp2428
sI300
(dp2429
sI150
(dp2430
sI103
(dp2431
ssI82
(dp2432
I320
(dp2433
sI4
g2346
sI198
(dp2434
ssI84
(dp2435
I224
(dp2436
sI130
(dp2437
ssI92
(dp2438
I297
(dp2439
ssI94
(dp2440
I316
(dp2441
sI53
g2403
sI135
(dp2442
ssI95
(dp2443
I130
(dp2444
ssI103
(dp2445
I16
g2366
sI80
g2431
sI300
(dp2446
sI150
(dp2447
sI264
(dp2448
ssI106
(dp2449
I150
(dp2450
ssI107
(dp2451
I248
(dp2452
sI172
(dp2453
sI148
(dp2454
sI222
(dp2455
sI63
g2410
ssI109
(dp2456
I72
g2420
sI51
g2400
sI181
(dp2457
ssI110
(dp2458
I268
(dp2459
sI245
(dp2460
ssI112
(dp2461
I25
g2384
sI291
(dp2462
sI313
(dp2463
sI294
(dp2464
sI273
(dp2465
ssI116
(dp2466
I65
g2416
sI311
(dp2467
sI135
(dp2468
ssI122
(dp2469
I130
(dp2470
ssI129
(dp2471
I249
(dp2472
sI270
(dp2473
sI135
(dp2474
ssI130
(dp2475
I224
(dp2476
sI122
g2470
sI84
g2437
sI95
g2444
ssI131
(dp2477
I58
g2406
ssI134
(dp2478
I192
(dp2479
sI307
(dp2480
sI20
g2373
sI141
(dp2481
sI6
g2353
ssI135
(dp2482
I129
g2474
sI270
(dp2483
sI116
g2468
sI53
g2404
sI182
(dp2484
sI249
(dp2485
sI316
(dp2486
sI94
g2442
ssI136
(dp2487
I264
(dp2488
sI169
(dp2489
sI21
g2376
ssI141
(dp2490
I192
(dp2491
sI307
(dp2492
sI20
g2374
sI6
g2352
sI134
g2481
ssI143
(dp2493
I9
g2355
sI75
g2423
sI204
(dp2494
ssI145
(dp2495
I32
g2391
sI192
(dp2496
ssI146
(dp2497
I312
(dp2498
sI17
g2369
ssI147
(dp2499
I277
(dp2500
ssI148
(dp2501
I248
(dp2502
sI107
g2454
sI172
(dp2503
sI222
(dp2504
sI63
g2411
ssI149
(dp2505
I232
(dp2506
ssI150
(dp2507
I80
g2430
sI103
g2447
sI264
(dp2508
sI106
g2450
sI300
(dp2509
sI16
g2365
ssI152
(dp2510
I307
(dp2511
ssI167
(dp2512
I239
(dp2513
ssI169
(dp2514
I136
g2489
sI264
(dp2515
sI21
g2377
ssI170
(dp2516
I324
(dp2517
sI263
(dp2518
ssI172
(dp2519
I248
(dp2520
sI107
g2453
sI148
g2503
sI222
(dp2521
sI63
g2409
ssI181
(dp2522
I72
g2421
sI51
g2401
sI188
(dp2523
sI109
g2457
ssI182
(dp2524
I135
g2484
ssI188
(dp2525
I72
g2419
sI51
g2399
sI181
g2523
ssI192
(dp2526
I32
g2390
sI6
g2349
sI134
g2479
sI141
g2491
sI145
g2496
sI307
(dp2527
sI20
g2371
ssI198
(dp2528
I320
(dp2529
sI82
g2434
sI4
g2347
ssI199
(dp2530
I49
g2395
ssI201
(dp2531
I76
g2426
ssI202
(dp2532
I1
g2342
ssI204
(dp2533
I143
g2494
ssI207
(dp2534
I225
(dp2535
ssI208
(dp2536
I262
(dp2537
ssI211
(dp2538
I293
(dp2539
ssI218
(dp2540
I279
(dp2541
ssI219
(dp2542
I64
g2414
ssI220
(dp2543
I275
(dp2544
sI11
g2358
ssI222
(dp2545
I248
(dp2546
sI172
g2521
sI107
g2455
sI148
g2504
sI63
g2412
ssI224
(dp2547
I130
g2476
sI84
g2436
ssI225
(dp2548
I207
g2535
ssI230
(dp2549
I264
(dp2550
ssI232
(dp2551
I149
g2506
ssI234
(dp2552
I12
g2360
ssI239
(dp2553
I167
g2513
ssI244
(dp2554
I276
(dp2555
sI277
(dp2556
ssI245
(dp2557
I268
(dp2558
sI110
g2460
ssI248
(dp2559
I172
g2520
sI107
g2452
sI148
g2502
sI222
g2546
sI63
g2408
ssI249
(dp2560
I129
g2472
sI135
g2485
ssI261
(dp2561
I264
(dp2562
sI300
(dp2563
ssI262
(dp2564
I208
g2537
ssI263
(dp2565
I170
g2518
sI324
(dp2566
ssI264
(dp2567
I80
g2428
sI261
g2562
sI230
g2550
sI103
g2448
sI136
g2488
sI169
g2515
sI76
g2425
sI16
g2363
sI21
g2378
sI150
g2508
sI300
(dp2568
ssI268
(dp2569
I245
g2558
sI110
g2459
ssI270
(dp2570
I129
g2473
sI65
g2417
sI135
g2483
ssI273
(dp2571
I112
g2465
sI25
g2385
sI291
(dp2572
sI294
(dp2573
sI313
(dp2574
ssI275
(dp2575
I11
g2357
sI220
g2544
ssI276
(dp2576
I244
g2555
ssI277
(dp2577
I147
g2500
sI244
g2556
ssI279
(dp2578
I218
g2541
ssI291
(dp2579
I112
g2462
sI25
g2382
sI313
(dp2580
sI294
(dp2581
sI273
g2572
ssI293
(dp2582
I1
g2343
sI211
g2539
ssI294
(dp2583
I112
g2464
sI25
g2383
sI291
g2581
sI313
(dp2584
sI273
g2573
ssI297
(dp2585
I92
g2439
ssI300
(dp2586
I80
g2429
sI261
g2563
sI103
g2446
sI264
g2568
sI16
g2364
sI150
g2509
ssI307
(dp2587
I192
g2527
sI6
g2350
sI134
g2480
sI141
g2492
sI20
g2372
sI152
g2511
ssI311
(dp2588
I25
g2386
sI116
g2467
ssI312
(dp2589
I17
g2368
sI146
g2498
ssI313
(dp2590
I112
g2463
sI25
g2387
sI291
g2580
sI294
g2584
sI273
g2574
ssI316
(dp2591
I94
g2441
sI135
g2486
ssI320
(dp2592
I82
g2433
sI4
g2345
sI198
g2529
ssI324
(dp2593
I170
g2517
sI263
g2566
sssg291
(dp2594
sg293
g86
sg294
g2340
sbag1
(g2
g3
Ntp2595
Rp2596
(dp2597
g7
(dp2598
I4
(dp2599
sI6
(dp2600
sI9
(dp2601
sI12
(dp2602
sI13
(dp2603
sI16
(dp2604
sI17
(dp2605
sI20
(dp2606
sI21
(dp2607
sI25
(dp2608
sI32
(dp2609
sI39
(dp2610
sI53
(dp2611
sI60
(dp2612
sI63
(dp2613
sI64
(dp2614
sI65
(dp2615
sI69
(dp2616
sI76
(dp2617
sI80
(dp2618
sI82
(dp2619
sI90
(dp2620
sI94
(dp2621
sI95
(dp2622
sI101
(dp2623
sI103
(dp2624
sI106
(dp2625
sI107
(dp2626
sI109
(dp2627
sI116
(dp2628
sI120
(dp2629
sI122
(dp2630
sI129
(dp2631
sI134
(dp2632
sI135
(dp2633
sI136
(dp2634
sI141
(dp2635
sI143
(dp2636
sI145
(dp2637
sI146
(dp2638
sI147
(dp2639
sI148
(dp2640
sI150
(dp2641
sI152
(dp2642
sI154
(dp2643
sI155
(dp2644
sI159
(dp2645
sI161
(dp2646
sI167
(dp2647
sI168
(dp2648
sI169
(dp2649
sI172
(dp2650
sI182
(dp2651
sI185
(dp2652
sI188
(dp2653
sI192
(dp2654
sI194
(dp2655
sI198
(dp2656
sI201
(dp2657
sI202
(dp2658
sI204
(dp2659
sI207
(dp2660
sI210
(dp2661
sI211
(dp2662
sI214
(dp2663
sI216
(dp2664
sI217
(dp2665
sI219
(dp2666
sI222
(dp2667
sI230
(dp2668
sI234
(dp2669
sI239
(dp2670
sI241
(dp2671
sI244
(dp2672
sI248
(dp2673
sI249
(dp2674
sI256
(dp2675
sI261
(dp2676
sI264
(dp2677
sI265
(dp2678
sI269
(dp2679
sI270
(dp2680
sI274
(dp2681
sI276
(dp2682
sI277
(dp2683
sI286
(dp2684
sI293
(dp2685
sI298
(dp2686
sI300
(dp2687
sI301
(dp2688
sI304
(dp2689
sI306
(dp2690
sI307
(dp2691
sI311
(dp2692
sI314
(dp2693
sI320
(dp2694
sI323
(dp2695
sI325
(dp2696
ssg85
g86
sg87
g86
sg88
(dp2697
I4
(dp2698
I82
(dp2699
sI325
(dp2700
ssI6
(dp2701
I192
(dp2702
sI307
(dp2703
sI20
(dp2704
sI141
(dp2705
sI134
(dp2706
ssI9
(dp2707
I143
(dp2708
ssI12
(dp2709
I234
(dp2710
ssI13
(dp2711
I25
(dp2712
sI277
(dp2713
sI311
(dp2714
ssI16
(dp2715
I264
(dp2716
sI300
(dp2717
sI150
(dp2718
ssI17
(dp2719
I146
(dp2720
ssI20
(dp2721
I192
(dp2722
sI307
(dp2723
sI134
(dp2724
sI6
g2704
sI141
(dp2725
ssI21
(dp2726
I136
(dp2727
sI169
(dp2728
sI155
(dp2729
sI264
(dp2730
ssI25
(dp2731
I13
g2712
sI311
(dp2732
ssI32
(dp2733
I192
(dp2734
sI145
(dp2735
ssI39
(dp2736
I256
(dp2737
sI274
(dp2738
sI298
(dp2739
ssI53
(dp2740
I270
(dp2741
ssI60
(dp2742
I122
(dp2743
sI95
(dp2744
ssI63
(dp2745
I248
(dp2746
sI172
(dp2747
sI107
(dp2748
sI148
(dp2749
sI222
(dp2750
ssI64
(dp2751
I219
(dp2752
ssI65
(dp2753
I323
(dp2754
sI116
(dp2755
sI270
(dp2756
sI230
(dp2757
ssI69
(dp2758
I120
(dp2759
sI143
(dp2760
ssI76
(dp2761
I201
(dp2762
ssI80
(dp2763
I300
(dp2764
sI150
(dp2765
ssI82
(dp2766
I320
(dp2767
sI4
g2699
sI301
(dp2768
sI198
(dp2769
ssI90
(dp2770
I216
(dp2771
ssI94
(dp2772
I249
(dp2773
sI135
(dp2774
ssI95
(dp2775
I122
(dp2776
sI60
g2744
ssI101
(dp2777
I264
(dp2778
sI194
(dp2779
sI323
(dp2780
sI230
(dp2781
sI207
(dp2782
ssI103
(dp2783
I300
(dp2784
sI150
(dp2785
ssI106
(dp2786
I150
(dp2787
ssI107
(dp2788
I248
(dp2789
sI172
(dp2790
sI148
(dp2791
sI222
(dp2792
sI63
g2748
ssI109
(dp2793
I188
(dp2794
sI143
(dp2795
ssI116
(dp2796
I65
g2755
ssI120
(dp2797
I69
g2759
sI143
(dp2798
ssI122
(dp2799
I60
g2743
sI95
g2776
ssI129
(dp2800
I249
(dp2801
sI135
(dp2802
ssI134
(dp2803
I192
(dp2804
sI307
(dp2805
sI20
g2724
sI141
(dp2806
sI6
g2706
ssI135
(dp2807
I129
g2802
sI182
(dp2808
sI94
g2774
sI249
(dp2809
ssI136
(dp2810
I21
g2727
ssI141
(dp2811
I192
(dp2812
sI307
(dp2813
sI20
g2725
sI6
g2705
sI134
g2806
ssI143
(dp2814
I69
g2760
sI9
g2708
sI204
(dp2815
sI109
g2795
sI120
g2798
sI188
(dp2816
ssI145
(dp2817
I32
g2735
sI192
(dp2818
ssI146
(dp2819
I17
g2720
ssI147
(dp2820
I277
(dp2821
ssI148
(dp2822
I248
(dp2823
sI107
g2791
sI172
(dp2824
sI222
(dp2825
sI63
g2749
ssI150
(dp2826
I80
g2765
sI103
g2785
sI264
(dp2827
sI106
g2787
sI300
(dp2828
sI16
g2718
ssI152
(dp2829
I161
(dp2830
sI307
(dp2831
ssI154
(dp2832
I265
(dp2833
ssI155
(dp2834
I21
g2729
ssI159
(dp2835
I264
(dp2836
ssI161
(dp2837
I152
g2830
sI307
(dp2838
ssI167
(dp2839
I239
(dp2840
ssI168
(dp2841
I306
(dp2842
ssI169
(dp2843
I21
g2728
ssI172
(dp2844
I248
(dp2845
sI107
g2790
sI148
g2824
sI222
(dp2846
sI63
g2747
ssI182
(dp2847
I135
g2808
ssI185
(dp2848
I241
(dp2849
ssI188
(dp2850
I109
g2794
sI143
g2816
ssI192
(dp2851
I32
g2734
sI6
g2702
sI134
g2804
sI141
g2812
sI145
g2818
sI307
(dp2852
sI20
g2722
ssI194
(dp2853
I264
(dp2854
sI101
g2779
ssI198
(dp2855
I320
(dp2856
sI82
g2769
ssI201
(dp2857
I76
g2762
ssI202
(dp2858
I293
(dp2859
ssI204
(dp2860
I143
g2815
ssI207
(dp2861
I264
(dp2862
sI323
(dp2863
sI101
g2782
sI230
(dp2864
ssI210
(dp2865
I314
(dp2866
ssI211
(dp2867
I293
(dp2868
ssI214
(dp2869
I217
(dp2870
ssI216
(dp2871
I90
g2771
ssI217
(dp2872
I214
g2870
ssI219
(dp2873
I64
g2752
ssI222
(dp2874
I248
(dp2875
sI172
g2846
sI107
g2792
sI148
g2825
sI63
g2750
ssI230
(dp2876
I264
(dp2877
sI65
g2757
sI323
(dp2878
sI101
g2781
sI207
g2864
ssI234
(dp2879
I12
g2710
ssI239
(dp2880
I167
g2840
ssI241
(dp2881
I185
g2849
ssI244
(dp2882
I276
(dp2883
ssI248
(dp2884
I172
g2845
sI107
g2789
sI148
g2823
sI222
g2875
sI63
g2746
ssI249
(dp2885
I129
g2801
sI94
g2773
sI135
g2809
ssI256
(dp2886
I39
g2737
ssI261
(dp2887
I264
(dp2888
sI300
(dp2889
ssI264
(dp2890
I194
g2854
sI323
(dp2891
sI261
g2888
sI101
g2778
sI230
g2877
sI300
(dp2892
sI207
g2862
sI16
g2716
sI21
g2730
sI150
g2827
sI286
(dp2893
sI159
g2836
ssI265
(dp2894
I154
g2833
ssI269
(dp2895
I304
(dp2896
ssI270
(dp2897
I65
g2756
sI53
g2741
ssI274
(dp2898
I298
(dp2899
sI39
g2738
ssI276
(dp2900
I244
g2883
ssI277
(dp2901
I147
g2821
sI13
g2713
ssI286
(dp2902
I264
g2893
ssI293
(dp2903
I202
g2859
sI211
g2868
ssI298
(dp2904
I274
g2899
sI39
g2739
ssI300
(dp2905
I80
g2764
sI261
g2889
sI103
g2784
sI264
g2892
sI16
g2717
sI150
g2828
ssI301
(dp2906
I82
g2768
ssI304
(dp2907
I269
g2896
ssI306
(dp2908
I168
g2842
ssI307
(dp2909
I192
g2852
sI161
g2838
sI6
g2703
sI134
g2805
sI141
g2813
sI20
g2723
sI152
g2831
ssI311
(dp2910
I25
g2732
sI13
g2714
ssI314
(dp2911
I210
g2866
ssI320
(dp2912
I82
g2767
sI198
g2856
ssI323
(dp2913
I264
g2891
sI65
g2754
sI101
g2780
sI230
g2878
sI207
g2863
ssI325
(dp2914
I4
g2700
sssg291
(dp2915
sg293
g86
sg294
g2697
sbag1
(g2
g3
Ntp2916
Rp2917
(dp2918
g7
(dp2919
I4
(dp2920
sI13
(dp2921
sI17
(dp2922
sI19
(dp2923
sI21
(dp2924
sI22
(dp2925
sI23
(dp2926
sI25
(dp2927
sI34
(dp2928
sI38
(dp2929
sI39
(dp2930
sI42
(dp2931
sI53
(dp2932
sI60
(dp2933
sI62
(dp2934
sI65
(dp2935
sI67
(dp2936
sI69
(dp2937
sI82
(dp2938
sI87
(dp2939
sI89
(dp2940
sI90
(dp2941
sI94
(dp2942
sI95
(dp2943
sI97
(dp2944
sI99
(dp2945
sI101
(dp2946
sI109
(dp2947
sI116
(dp2948
sI118
(dp2949
sI119
(dp2950
sI120
(dp2951
sI121
(dp2952
sI122
(dp2953
sI126
(dp2954
sI128
(dp2955
sI129
(dp2956
sI135
(dp2957
sI136
(dp2958
sI143
(dp2959
sI152
(dp2960
sI154
(dp2961
sI155
(dp2962
sI157
(dp2963
sI159
(dp2964
sI161
(dp2965
sI166
(dp2966
sI168
(dp2967
sI169
(dp2968
sI175
(dp2969
sI178
(dp2970
sI182
(dp2971
sI185
(dp2972
sI188
(dp2973
sI193
(dp2974
sI194
(dp2975
sI197
(dp2976
sI202
(dp2977
sI205
(dp2978
sI207
(dp2979
sI208
(dp2980
sI213
(dp2981
sI214
(dp2982
sI215
(dp2983
sI216
(dp2984
sI217
(dp2985
sI230
(dp2986
sI231
(dp2987
sI241
(dp2988
sI243
(dp2989
sI244
(dp2990
sI249
(dp2991
sI250
(dp2992
sI251
(dp2993
sI256
(dp2994
sI259
(dp2995
sI264
(dp2996
sI265
(dp2997
sI266
(dp2998
sI268
(dp2999
sI269
(dp3000
sI270
(dp3001
sI274
(dp3002
sI275
(dp3003
sI276
(dp3004
sI277
(dp3005
sI280
(dp3006
sI283
(dp3007
sI286
(dp3008
sI293
(dp3009
sI296
(dp3010
sI298
(dp3011
sI300
(dp3012
sI301
(dp3013
sI306
(dp3014
sI307
(dp3015
sI311
(dp3016
sI316
(dp3017
sI320
(dp3018
sI322
(dp3019
sI323
(dp3020
sI325
(dp3021
ssg85
g86
sg87
g86
sg88
(dp3022
I4
(dp3023
I320
(dp3024
sI325
(dp3025
ssI13
(dp3026
I25
(dp3027
sI259
(dp3028
sI277
(dp3029
sI311
(dp3030
ssI17
(dp3031
I97
(dp3032
sI19
(dp3033
sI175
(dp3034
ssI19
(dp3035
I17
g3033
ssI21
(dp3036
I264
(dp3037
sI155
(dp3038
ssI22
(dp3039
I269
(dp3040
sI23
(dp3041
ssI23
(dp3042
I269
(dp3043
sI22
g3041
ssI25
(dp3044
I129
(dp3045
sI311
(dp3046
sI13
g3027
sI135
(dp3047
ssI34
(dp3048
I193
(dp3049
sI231
(dp3050
sI296
(dp3051
sI42
(dp3052
sI280
(dp3053
sI251
(dp3054
ssI38
(dp3055
I118
(dp3056
ssI39
(dp3057
I256
(dp3058
sI274
(dp3059
sI298
(dp3060
ssI42
(dp3061
I193
(dp3062
sI34
g3052
sI231
(dp3063
sI296
(dp3064
sI280
(dp3065
sI251
(dp3066
ssI53
(dp3067
I270
(dp3068
ssI60
(dp3069
I122
(dp3070
sI95
(dp3071
ssI62
(dp3072
I266
(dp3073
ssI65
(dp3074
I270
(dp3075
sI230
(dp3076
ssI67
(dp3077
I205
(dp3078
ssI69
(dp3079
I120
(dp3080
sI143
(dp3081
sI215
(dp3082
ssI82
(dp3083
I301
(dp3084
ssI87
(dp3085
I300
(dp3086
ssI89
(dp3087
I213
(dp3088
ssI90
(dp3089
I216
(dp3090
ssI94
(dp3091
I249
(dp3092
sI116
(dp3093
sI135
(dp3094
ssI95
(dp3095
I122
(dp3096
sI60
g3071
ssI97
(dp3097
I17
g3032
sI175
(dp3098
ssI99
(dp3099
I208
(dp3100
ssI101
(dp3101
I264
(dp3102
sI194
(dp3103
sI323
(dp3104
sI230
(dp3105
sI207
(dp3106
ssI109
(dp3107
I188
(dp3108
sI143
(dp3109
ssI116
(dp3110
I94
g3093
ssI118
(dp3111
I38
g3056
ssI119
(dp3112
I265
(dp3113
ssI120
(dp3114
I69
g3080
sI143
(dp3115
ssI121
(dp3116
I243
(dp3117
ssI122
(dp3118
I60
g3070
sI95
g3096
ssI126
(dp3119
I128
(dp3120
sI136
(dp3121
sI169
(dp3122
sI264
(dp3123
sI178
(dp3124
sI155
(dp3125
ssI128
(dp3126
I136
(dp3127
sI169
(dp3128
sI264
(dp3129
sI178
(dp3130
sI155
(dp3131
sI126
g3120
ssI129
(dp3132
I25
g3045
sI135
(dp3133
ssI135
(dp3134
I25
g3047
sI249
(dp3135
sI182
(dp3136
sI94
g3094
sI129
g3133
ssI136
(dp3137
I128
g3127
sI264
(dp3138
sI169
(dp3139
sI178
(dp3140
sI155
(dp3141
sI126
g3121
ssI143
(dp3142
I120
g3115
sI154
(dp3143
sI188
(dp3144
sI69
g3081
sI109
g3109
ssI152
(dp3145
I161
(dp3146
sI307
(dp3147
ssI154
(dp3148
I265
(dp3149
sI143
g3143
ssI155
(dp3150
I128
g3131
sI136
g3141
sI169
(dp3151
sI264
(dp3152
sI178
(dp3153
sI21
g3038
sI126
g3125
ssI157
(dp3154
I259
(dp3155
sI244
(dp3156
ssI159
(dp3157
I264
(dp3158
ssI161
(dp3159
I152
g3146
sI307
(dp3160
ssI166
(dp3161
I322
(dp3162
ssI168
(dp3163
I306
(dp3164
ssI169
(dp3165
I128
g3128
sI136
g3139
sI264
(dp3166
sI178
(dp3167
sI155
g3151
sI126
g3122
ssI175
(dp3168
I17
g3034
sI97
g3098
ssI178
(dp3169
I128
g3130
sI136
g3140
sI169
g3167
sI264
(dp3170
sI155
g3153
sI126
g3124
ssI182
(dp3171
I135
g3136
ssI185
(dp3172
I241
(dp3173
ssI188
(dp3174
I109
g3108
sI143
g3144
ssI193
(dp3175
I34
g3049
sI231
(dp3176
sI296
(dp3177
sI42
g3062
sI280
(dp3178
sI251
(dp3179
ssI194
(dp3180
I101
g3103
ssI197
(dp3181
I216
(dp3182
ssI202
(dp3183
I293
(dp3184
ssI205
(dp3185
I67
g3078
ssI207
(dp3186
I264
(dp3187
sI323
(dp3188
sI101
g3106
sI230
(dp3189
ssI208
(dp3190
I99
g3100
ssI213
(dp3191
I89
g3088
ssI214
(dp3192
I217
(dp3193
ssI215
(dp3194
I69
g3082
ssI216
(dp3195
I90
g3090
sI197
g3182
ssI217
(dp3196
I214
g3193
ssI230
(dp3197
I264
(dp3198
sI65
g3076
sI323
(dp3199
sI101
g3105
sI207
g3189
ssI231
(dp3200
I193
g3176
sI34
g3050
sI283
(dp3201
sI296
(dp3202
sI42
g3063
sI280
(dp3203
sI251
(dp3204
ssI241
(dp3205
I185
g3173
ssI243
(dp3206
I121
g3117
ssI244
(dp3207
I259
(dp3208
sI276
(dp3209
sI157
g3156
ssI249
(dp3210
I94
g3092
sI135
g3135
ssI250
(dp3211
I269
(dp3212
ssI251
(dp3213
I193
g3179
sI34
g3054
sI231
g3204
sI296
(dp3214
sI42
g3066
sI280
(dp3215
ssI256
(dp3216
I274
(dp3217
sI268
(dp3218
sI298
(dp3219
sI39
g3058
ssI259
(dp3220
I244
g3208
sI13
g3028
sI157
g3155
ssI264
(dp3221
I128
g3129
sI323
(dp3222
sI101
g3102
sI230
g3198
sI136
g3138
sI169
g3166
sI286
(dp3223
sI207
g3187
sI178
g3170
sI21
g3037
sI155
g3152
sI126
g3123
sI159
g3158
ssI265
(dp3224
I154
g3149
sI119
g3113
ssI266
(dp3225
I62
g3073
ssI268
(dp3226
I256
g3218
sI274
(dp3227
sI298
(dp3228
ssI269
(dp3229
I250
g3212
sI22
g3040
sI23
g3043
ssI270
(dp3230
I65
g3075
sI53
g3068
ssI274
(dp3231
I256
g3217
sI298
(dp3232
sI268
g3227
sI39
g3059
ssI275
(dp3233
I316
(dp3234
ssI276
(dp3235
I244
g3209
ssI277
(dp3236
I13
g3029
ssI280
(dp3237
I193
g3178
sI34
g3053
sI231
g3203
sI296
(dp3238
sI42
g3065
sI251
g3215
ssI283
(dp3239
I231
g3201
ssI286
(dp3240
I264
g3223
ssI293
(dp3241
I202
g3184
ssI296
(dp3242
I193
g3177
sI34
g3051
sI231
g3202
sI42
g3064
sI280
g3238
sI251
g3214
ssI298
(dp3243
I256
g3219
sI274
g3232
sI268
g3228
sI39
g3060
ssI300
(dp3244
I87
g3086
ssI301
(dp3245
I82
g3084
ssI306
(dp3246
I168
g3164
ssI307
(dp3247
I152
g3147
sI161
g3160
ssI311
(dp3248
I25
g3046
sI13
g3030
ssI316
(dp3249
I275
g3234
ssI320
(dp3250
I4
g3024
ssI322
(dp3251
I166
g3162
ssI323
(dp3252
I264
g3222
sI101
g3104
sI230
g3199
sI207
g3188
ssI325
(dp3253
I4
g3025
sssg291
(dp3254
sg293
g86
sg294
g3022
sbag1
(g2
g3
Ntp3255
Rp3256
(dp3257
g7
(dp3258
I4
(dp3259
sI13
(dp3260
sI17
(dp3261
sI18
(dp3262
sI19
(dp3263
sI22
(dp3264
sI23
(dp3265
sI25
(dp3266
sI31
(dp3267
sI34
(dp3268
sI35
(dp3269
sI38
(dp3270
sI42
(dp3271
sI45
(dp3272
sI51
(dp3273
sI53
(dp3274
sI56
(dp3275
sI61
(dp3276
sI62
(dp3277
sI65
(dp3278
sI67
(dp3279
sI74
(dp3280
sI89
(dp3281
sI92
(dp3282
sI94
(dp3283
sI97
(dp3284
sI99
(dp3285
sI108
(dp3286
sI111
(dp3287
sI114
(dp3288
sI116
(dp3289
sI118
(dp3290
sI119
(dp3291
sI126
(dp3292
sI128
(dp3293
sI129
(dp3294
sI130
(dp3295
sI135
(dp3296
sI136
(dp3297
sI138
(dp3298
sI139
(dp3299
sI143
(dp3300
sI153
(dp3301
sI154
(dp3302
sI155
(dp3303
sI157
(dp3304
sI159
(dp3305
sI160
(dp3306
sI169
(dp3307
sI175
(dp3308
sI178
(dp3309
sI182
(dp3310
sI183
(dp3311
sI184
(dp3312
sI185
(dp3313
sI186
(dp3314
sI193
(dp3315
sI197
(dp3316
sI201
(dp3317
sI205
(dp3318
sI208
(dp3319
sI209
(dp3320
sI210
(dp3321
sI213
(dp3322
sI216
(dp3323
sI231
(dp3324
sI232
(dp3325
sI233
(dp3326
sI234
(dp3327
sI235
(dp3328
sI241
(dp3329
sI243
(dp3330
sI244
(dp3331
sI247
(dp3332
sI249
(dp3333
sI250
(dp3334
sI251
(dp3335
sI256
(dp3336
sI257
(dp3337
sI259
(dp3338
sI264
(dp3339
sI265
(dp3340
sI266
(dp3341
sI268
(dp3342
sI269
(dp3343
sI270
(dp3344
sI274
(dp3345
sI275
(dp3346
sI277
(dp3347
sI278
(dp3348
sI279
(dp3349
sI280
(dp3350
sI283
(dp3351
sI292
(dp3352
sI296
(dp3353
sI297
(dp3354
sI298
(dp3355
sI304
(dp3356
sI309
(dp3357
sI311
(dp3358
sI312
(dp3359
sI314
(dp3360
sI316
(dp3361
sI320
(dp3362
sI323
(dp3363
ssg85
g86
sg87
g86
sg88
(dp3364
I4
(dp3365
I320
(dp3366
sI201
(dp3367
ssI13
(dp3368
I25
(dp3369
sI259
(dp3370
ssI17
(dp3371
I256
(dp3372
sI97
(dp3373
sI175
(dp3374
sI184
(dp3375
sI274
(dp3376
sI19
(dp3377
sI312
(dp3378
ssI18
(dp3379
I283
(dp3380
ssI19
(dp3381
I17
g3377
sI175
(dp3382
ssI22
(dp3383
I269
(dp3384
ssI23
(dp3385
I269
(dp3386
ssI25
(dp3387
I129
(dp3388
sI311
(dp3389
sI13
g3369
sI135
(dp3390
ssI31
(dp3391
I153
(dp3392
sI268
(dp3393
ssI34
(dp3394
I193
(dp3395
sI231
(dp3396
sI296
(dp3397
sI42
(dp3398
sI280
(dp3399
sI251
(dp3400
ssI35
(dp3401
I270
(dp3402
ssI38
(dp3403
I233
(dp3404
sI118
(dp3405
ssI42
(dp3406
I193
(dp3407
sI34
g3398
sI231
(dp3408
sI296
(dp3409
sI280
(dp3410
sI251
(dp3411
ssI45
(dp3412
I243
(dp3413
sI183
(dp3414
ssI51
(dp3415
I130
(dp3416
ssI53
(dp3417
I270
(dp3418
ssI56
(dp3419
I244
(dp3420
sI277
(dp3421
ssI61
(dp3422
I136
(dp3423
sI169
(dp3424
sI292
(dp3425
sI309
(dp3426
sI264
(dp3427
ssI62
(dp3428
I266
(dp3429
ssI65
(dp3430
I160
(dp3431
sI323
(dp3432
ssI67
(dp3433
I74
(dp3434
sI205
(dp3435
ssI74
(dp3436
I67
g3434
sI205
(dp3437
ssI89
(dp3438
I213
(dp3439
sI269
(dp3440
ssI92
(dp3441
I297
(dp3442
ssI94
(dp3443
I116
(dp3444
ssI97
(dp3445
I17
g3373
sI175
(dp3446
ssI99
(dp3447
I208
(dp3448
sI114
(dp3449
ssI108
(dp3450
I232
(dp3451
ssI111
(dp3452
I129
(dp3453
ssI114
(dp3454
I208
(dp3455
sI99
g3449
ssI116
(dp3456
I94
g3444
ssI118
(dp3457
I233
(dp3458
sI38
g3405
sI135
(dp3459
ssI119
(dp3460
I265
(dp3461
ssI126
(dp3462
I128
(dp3463
sI136
(dp3464
sI169
(dp3465
sI264
(dp3466
sI178
(dp3467
sI155
(dp3468
ssI128
(dp3469
I136
(dp3470
sI169
(dp3471
sI264
(dp3472
sI178
(dp3473
sI155
(dp3474
sI126
g3463
ssI129
(dp3475
I25
g3388
sI135
(dp3476
sI111
g3453
ssI130
(dp3477
I51
g3416
ssI135
(dp3478
I25
g3390
sI233
(dp3479
sI182
(dp3480
sI118
g3459
sI129
g3476
ssI136
(dp3481
I128
g3470
sI292
(dp3482
sI264
(dp3483
sI169
(dp3484
sI178
(dp3485
sI309
(dp3486
sI155
(dp3487
sI61
g3423
sI126
g3464
ssI138
(dp3488
I316
(dp3489
ssI139
(dp3490
I249
(dp3491
sI270
(dp3492
ssI143
(dp3493
I154
(dp3494
ssI153
(dp3495
I268
(dp3496
sI31
g3392
ssI154
(dp3497
I265
(dp3498
sI278
(dp3499
sI143
g3494
ssI155
(dp3500
I128
g3474
sI136
g3487
sI169
(dp3501
sI264
(dp3502
sI178
(dp3503
sI126
g3468
sI159
(dp3504
ssI157
(dp3505
I259
(dp3506
sI244
(dp3507
ssI159
(dp3508
I264
(dp3509
sI155
g3504
ssI160
(dp3510
I65
g3431
ssI169
(dp3511
I128
g3471
sI292
(dp3512
sI136
g3484
sI264
(dp3513
sI178
(dp3514
sI309
(dp3515
sI155
g3501
sI61
g3424
sI126
g3465
ssI175
(dp3516
I17
g3374
sI19
g3382
sI97
g3446
ssI178
(dp3517
I128
g3473
sI136
g3485
sI169
g3514
sI264
(dp3518
sI155
g3503
sI126
g3467
ssI182
(dp3519
I135
g3480
ssI183
(dp3520
I243
(dp3521
sI45
g3414
ssI184
(dp3522
I17
g3375
ssI185
(dp3523
I241
(dp3524
ssI186
(dp3525
I256
(dp3526
sI257
(dp3527
sI274
(dp3528
sI235
(dp3529
sI197
(dp3530
ssI193
(dp3531
I34
g3395
sI231
(dp3532
sI296
(dp3533
sI42
g3407
sI280
(dp3534
sI251
(dp3535
ssI197
(dp3536
I256
(dp3537
sI257
(dp3538
sI235
(dp3539
sI209
(dp3540
sI274
(dp3541
sI216
(dp3542
sI186
g3530
ssI201
(dp3543
I4
g3367
ssI205
(dp3544
I74
g3437
sI67
g3435
ssI208
(dp3545
I114
g3455
sI99
g3448
ssI209
(dp3546
I235
(dp3547
sI197
g3540
ssI210
(dp3548
I314
(dp3549
sI311
(dp3550
ssI213
(dp3551
I89
g3439
ssI216
(dp3552
I197
g3542
ssI231
(dp3553
I193
g3532
sI34
g3396
sI283
(dp3554
sI296
(dp3555
sI42
g3408
sI270
(dp3556
sI280
(dp3557
sI251
(dp3558
ssI232
(dp3559
I108
g3451
ssI233
(dp3560
I38
g3404
sI118
g3458
sI135
g3479
ssI234
(dp3561
I241
(dp3562
ssI235
(dp3563
I256
(dp3564
sI257
(dp3565
sI197
g3539
sI209
g3547
sI274
(dp3566
sI186
g3529
ssI241
(dp3567
I185
g3524
sI234
g3562
ssI243
(dp3568
I45
g3413
sI183
g3521
ssI244
(dp3569
I56
g3420
sI259
(dp3570
sI157
g3507
ssI247
(dp3571
I279
(dp3572
ssI249
(dp3573
I139
g3491
ssI250
(dp3574
I269
(dp3575
ssI251
(dp3576
I193
g3535
sI34
g3400
sI231
g3558
sI296
(dp3577
sI42
g3411
sI280
(dp3578
ssI256
(dp3579
I257
(dp3580
sI197
g3537
sI235
g3564
sI268
(dp3581
sI17
g3372
sI274
(dp3582
sI312
(dp3583
sI186
g3526
ssI257
(dp3584
I256
g3580
sI274
(dp3585
sI186
g3527
sI235
g3565
sI197
g3538
ssI259
(dp3586
I244
g3570
sI13
g3370
sI157
g3506
ssI264
(dp3587
I128
g3472
sI292
(dp3588
sI136
g3483
sI169
g3513
sI178
g3518
sI309
(dp3589
sI155
g3502
sI61
g3427
sI126
g3466
sI159
g3509
ssI265
(dp3590
I154
g3498
sI119
g3461
ssI266
(dp3591
I62
g3429
ssI268
(dp3592
I256
g3581
sI153
g3496
sI274
(dp3593
sI298
(dp3594
sI31
g3393
ssI269
(dp3595
I304
(dp3596
sI89
g3440
sI250
g3575
sI22
g3384
sI23
g3386
ssI270
(dp3597
I283
(dp3598
sI35
g3402
sI139
g3492
sI53
g3418
sI231
g3556
ssI274
(dp3599
I256
g3582
sI257
g3585
sI197
g3541
sI298
(dp3600
sI235
g3566
sI268
g3593
sI17
g3376
sI312
(dp3601
sI186
g3528
ssI275
(dp3602
I316
(dp3603
ssI277
(dp3604
I56
g3421
ssI278
(dp3605
I154
g3499
ssI279
(dp3606
I247
g3572
ssI280
(dp3607
I193
g3534
sI34
g3399
sI231
g3557
sI296
(dp3608
sI42
g3410
sI251
g3578
ssI283
(dp3609
I18
g3380
sI270
g3598
sI231
g3554
ssI292
(dp3610
I264
g3588
sI136
g3482
sI309
(dp3611
sI61
g3425
sI169
g3512
ssI296
(dp3612
I193
g3533
sI34
g3397
sI231
g3555
sI42
g3409
sI280
g3608
sI251
g3577
ssI297
(dp3613
I92
g3442
ssI298
(dp3614
I274
g3600
sI268
g3594
ssI304
(dp3615
I269
g3596
ssI309
(dp3616
I264
g3589
sI136
g3486
sI292
g3611
sI61
g3426
sI169
g3515
ssI311
(dp3617
I25
g3389
sI210
g3550
ssI312
(dp3618
I256
g3583
sI17
g3378
sI274
g3601
ssI314
(dp3619
I210
g3549
ssI316
(dp3620
I138
g3489
sI275
g3603
ssI320
(dp3621
I4
g3366
ssI323
(dp3622
I65
g3432
sssg291
(dp3623
sg293
g86
sg294
g3364
sbag1
(g2
g3
Ntp3624
Rp3625
(dp3626
g7
(dp3627
I4
(dp3628
sI10
(dp3629
sI13
(dp3630
sI16
(dp3631
sI17
(dp3632
sI18
(dp3633
sI19
(dp3634
sI22
(dp3635
sI23
(dp3636
sI27
(dp3637
sI31
(dp3638
sI35
(dp3639
sI38
(dp3640
sI40
(dp3641
sI43
(dp3642
sI45
(dp3643
sI51
(dp3644
sI56
(dp3645
sI57
(dp3646
sI61
(dp3647
sI62
(dp3648
sI65
(dp3649
sI67
(dp3650
sI69
(dp3651
sI73
(dp3652
sI74
(dp3653
sI80
(dp3654
sI89
(dp3655
sI92
(dp3656
sI93
(dp3657
sI94
(dp3658
sI95
(dp3659
sI99
(dp3660
sI103
(dp3661
sI108
(dp3662
sI110
(dp3663
sI111
(dp3664
sI114
(dp3665
sI116
(dp3666
sI118
(dp3667
sI121
(dp3668
sI129
(dp3669
sI130
(dp3670
sI134
(dp3671
sI135
(dp3672
sI136
(dp3673
sI138
(dp3674
sI139
(dp3675
sI140
(dp3676
sI143
(dp3677
sI144
(dp3678
sI153
(dp3679
sI154
(dp3680
sI155
(dp3681
sI159
(dp3682
sI164
(dp3683
sI167
(dp3684
sI169
(dp3685
sI171
(dp3686
sI174
(dp3687
sI175
(dp3688
sI177
(dp3689
sI179
(dp3690
sI182
(dp3691
sI183
(dp3692
sI184
(dp3693
sI186
(dp3694
sI190
(dp3695
sI194
(dp3696
sI195
(dp3697
sI196
(dp3698
sI197
(dp3699
sI198
(dp3700
sI201
(dp3701
sI203
(dp3702
sI205
(dp3703
sI208
(dp3704
sI209
(dp3705
sI210
(dp3706
sI211
(dp3707
sI213
(dp3708
sI214
(dp3709
sI215
(dp3710
sI217
(dp3711
sI223
(dp3712
sI225
(dp3713
sI231
(dp3714
sI232
(dp3715
sI233
(dp3716
sI234
(dp3717
sI235
(dp3718
sI240
(dp3719
sI241
(dp3720
sI243
(dp3721
sI244
(dp3722
sI247
(dp3723
sI249
(dp3724
sI253
(dp3725
sI255
(dp3726
sI256
(dp3727
sI257
(dp3728
sI258
(dp3729
sI259
(dp3730
sI260
(dp3731
sI264
(dp3732
sI266
(dp3733
sI268
(dp3734
sI269
(dp3735
sI270
(dp3736
sI274
(dp3737
sI277
(dp3738
sI278
(dp3739
sI279
(dp3740
sI281
(dp3741
sI283
(dp3742
sI285
(dp3743
sI286
(dp3744
sI290
(dp3745
sI292
(dp3746
sI297
(dp3747
sI298
(dp3748
sI304
(dp3749
sI309
(dp3750
sI310
(dp3751
sI311
(dp3752
sI312
(dp3753
sI314
(dp3754
sI315
(dp3755
sI316
(dp3756
sI320
(dp3757
sI323
(dp3758
sI325
(dp3759
sI326
(dp3760
ssg85
g86
sg87
g86
sg88
(dp3761
I4
(dp3762
I201
(dp3763
sI198
(dp3764
ssI10
(dp3765
I57
(dp3766
sI260
(dp3767
sI285
(dp3768
sI326
(dp3769
sI95
(dp3770
ssI13
(dp3771
I277
(dp3772
ssI16
(dp3773
I80
(dp3774
sI73
(dp3775
sI194
(dp3776
sI264
(dp3777
sI103
(dp3778
ssI17
(dp3779
I256
(dp3780
sI175
(dp3781
sI184
(dp3782
sI274
(dp3783
sI19
(dp3784
sI312
(dp3785
ssI18
(dp3786
I283
(dp3787
ssI19
(dp3788
I17
g3784
sI175
(dp3789
ssI22
(dp3790
I23
(dp3791
ssI23
(dp3792
I22
g3791
ssI27
(dp3793
I223
(dp3794
sI140
(dp3795
sI93
(dp3796
sI134
(dp3797
sI174
(dp3798
ssI31
(dp3799
I153
(dp3800
sI268
(dp3801
ssI35
(dp3802
I270
(dp3803
ssI38
(dp3804
I233
(dp3805
ssI40
(dp3806
I69
(dp3807
sI215
(dp3808
ssI43
(dp3809
I298
(dp3810
sI310
(dp3811
ssI45
(dp3812
I243
(dp3813
sI183
(dp3814
ssI51
(dp3815
I130
(dp3816
ssI56
(dp3817
I244
(dp3818
sI277
(dp3819
ssI57
(dp3820
I10
g3766
sI260
(dp3821
sI285
(dp3822
sI326
(dp3823
sI95
(dp3824
ssI61
(dp3825
I136
(dp3826
sI169
(dp3827
sI292
(dp3828
sI309
(dp3829
sI264
(dp3830
ssI62
(dp3831
I225
(dp3832
sI266
(dp3833
ssI65
(dp3834
I323
(dp3835
ssI67
(dp3836
I240
(dp3837
sI74
(dp3838
sI205
(dp3839
ssI69
(dp3840
I40
g3807
sI215
(dp3841
ssI73
(dp3842
I16
g3775
sI80
(dp3843
sI194
(dp3844
sI264
(dp3845
sI103
(dp3846
ssI74
(dp3847
I67
g3838
sI205
(dp3848
ssI80
(dp3849
I16
g3774
sI73
g3843
sI194
(dp3850
sI264
(dp3851
sI103
(dp3852
ssI89
(dp3853
I269
(dp3854
ssI92
(dp3855
I297
(dp3856
ssI93
(dp3857
I27
g3796
sI140
(dp3858
sI174
(dp3859
sI134
(dp3860
sI223
(dp3861
ssI94
(dp3862
I116
(dp3863
ssI95
(dp3864
I57
g3824
sI10
g3770
sI260
(dp3865
sI285
(dp3866
sI326
(dp3867
ssI99
(dp3868
I208
(dp3869
sI114
(dp3870
ssI103
(dp3871
I16
g3778
sI80
g3852
sI194
(dp3872
sI264
(dp3873
sI73
g3846
ssI108
(dp3874
I232
(dp3875
ssI110
(dp3876
I211
(dp3877
ssI111
(dp3878
I129
(dp3879
ssI114
(dp3880
I208
(dp3881
sI99
g3870
ssI116
(dp3882
I94
g3863
ssI118
(dp3883
I233
(dp3884
sI135
(dp3885
ssI121
(dp3886
I243
(dp3887
sI183
(dp3888
ssI129
(dp3889
I182
(dp3890
sI111
g3879
ssI130
(dp3891
I51
g3816
ssI134
(dp3892
I27
g3797
sI140
(dp3893
sI93
g3860
sI174
(dp3894
sI223
(dp3895
ssI135
(dp3896
I233
(dp3897
sI203
(dp3898
sI118
g3885
ssI136
(dp3899
I264
(dp3900
sI169
(dp3901
sI292
(dp3902
sI61
g3826
sI309
(dp3903
ssI138
(dp3904
I316
(dp3905
ssI139
(dp3906
I249
(dp3907
sI171
(dp3908
sI270
(dp3909
sI203
(dp3910
ssI140
(dp3911
I27
g3795
sI223
(dp3912
sI93
g3858
sI134
g3893
sI174
(dp3913
ssI143
(dp3914
I154
(dp3915
ssI144
(dp3916
I203
(dp3917
sI213
(dp3918
ssI153
(dp3919
I268
(dp3920
sI31
g3800
ssI154
(dp3921
I167
(dp3922
sI278
(dp3923
sI143
g3915
ssI155
(dp3924
I159
(dp3925
ssI159
(dp3926
I264
(dp3927
sI155
g3925
ssI164
(dp3928
I258
(dp3929
sI208
(dp3930
sI177
(dp3931
sI179
(dp3932
sI281
(dp3933
sI253
(dp3934
ssI167
(dp3935
I154
g3922
ssI169
(dp3936
I136
g3901
sI264
(dp3937
sI292
(dp3938
sI61
g3827
sI309
(dp3939
ssI171
(dp3940
I283
(dp3941
sI139
g3908
sI270
(dp3942
sI203
(dp3943
ssI174
(dp3944
I27
g3798
sI140
g3913
sI93
g3859
sI134
g3894
sI223
(dp3945
ssI175
(dp3946
I17
g3781
sI19
g3789
ssI177
(dp3947
I258
(dp3948
sI164
g3931
sI208
(dp3949
sI179
(dp3950
sI281
(dp3951
sI253
(dp3952
ssI179
(dp3953
I258
(dp3954
sI164
g3932
sI208
(dp3955
sI177
g3950
sI281
(dp3956
sI253
(dp3957
ssI182
(dp3958
I129
g3890
ssI183
(dp3959
I121
g3888
sI243
(dp3960
sI45
g3814
ssI184
(dp3961
I17
g3782
ssI186
(dp3962
I256
(dp3963
sI257
(dp3964
sI197
(dp3965
sI235
(dp3966
sI209
(dp3967
sI274
(dp3968
sI310
(dp3969
ssI190
(dp3970
I320
(dp3971
ssI194
(dp3972
I16
g3776
sI73
g3844
sI264
(dp3973
sI80
g3850
sI103
g3872
ssI195
(dp3974
I323
(dp3975
sI315
(dp3976
ssI196
(dp3977
I298
(dp3978
ssI197
(dp3979
I256
(dp3980
sI257
(dp3981
sI310
(dp3982
sI279
(dp3983
sI235
(dp3984
sI209
(dp3985
sI274
(dp3986
sI214
(dp3987
sI247
(dp3988
sI186
g3965
sI325
(dp3989
ssI198
(dp3990
I201
(dp3991
sI4
g3764
ssI201
(dp3992
I4
g3763
sI198
g3991
ssI203
(dp3993
I144
g3917
sI213
(dp3994
sI139
g3910
sI171
g3943
sI135
g3898
ssI205
(dp3995
I240
(dp3996
sI74
g3848
sI67
g3839
ssI208
(dp3997
I258
(dp3998
sI99
g3869
sI164
g3930
sI177
g3949
sI114
g3881
sI179
g3955
sI281
(dp3999
sI253
(dp4000
ssI209
(dp4001
I256
(dp4002
sI274
(dp4003
sI186
g3967
sI235
(dp4004
sI197
g3985
ssI210
(dp4005
I314
(dp4006
sI259
(dp4007
sI311
(dp4008
ssI211
(dp4009
I110
g3877
ssI213
(dp4010
I144
g3918
sI203
g3994
ssI214
(dp4011
I279
(dp4012
sI197
g3987
sI325
(dp4013
sI247
(dp4014
ssI215
(dp4015
I40
g3808
sI69
g3841
ssI217
(dp4016
I286
(dp4017
ssI223
(dp4018
I27
g3794
sI140
g3912
sI93
g3861
sI174
g3945
sI134
g3895
ssI225
(dp4019
I312
(dp4020
sI256
(dp4021
sI266
(dp4022
sI274
(dp4023
sI62
g3832
ssI231
(dp4024
I283
(dp4025
sI270
(dp4026
ssI232
(dp4027
I108
g3875
ssI233
(dp4028
I38
g3805
sI118
g3884
sI135
g3897
ssI234
(dp4029
I264
(dp4030
sI241
(dp4031
ssI235
(dp4032
I256
(dp4033
sI257
(dp4034
sI197
g3984
sI209
g4004
sI274
(dp4035
sI310
(dp4036
sI186
g3966
ssI240
(dp4037
I67
g3837
sI205
g3996
ssI241
(dp4038
I234
g4031
ssI243
(dp4039
I121
g3887
sI45
g3813
sI183
g3960
ssI244
(dp4040
I56
g3818
ssI247
(dp4041
I325
(dp4042
sI197
g3988
sI214
g4014
sI279
(dp4043
ssI249
(dp4044
I139
g3907
ssI253
(dp4045
I258
(dp4046
sI164
g3934
sI208
g4000
sI177
g3952
sI179
g3957
sI281
(dp4047
ssI255
(dp4048
I290
(dp4049
ssI256
(dp4050
I225
g4021
sI197
g3980
sI209
g4002
sI266
(dp4051
sI235
g4033
sI257
(dp4052
sI17
g3780
sI274
(dp4053
sI310
(dp4054
sI312
(dp4055
sI186
g3963
ssI257
(dp4056
I256
g4052
sI274
(dp4057
sI186
g3964
sI235
g4034
sI197
g3981
ssI258
(dp4058
I164
g3929
sI208
g3998
sI177
g3948
sI179
g3954
sI281
(dp4059
sI253
g4046
ssI259
(dp4060
I210
g4007
sI314
(dp4061
ssI260
(dp4062
I57
g3821
sI10
g3767
sI285
(dp4063
sI326
(dp4064
sI95
g3865
ssI264
(dp4065
I80
g3851
sI194
g3973
sI292
(dp4066
sI103
g3873
sI136
g3900
sI73
g3845
sI234
g4030
sI16
g3777
sI309
(dp4067
sI169
g3937
sI61
g3830
sI159
g3927
ssI266
(dp4068
I256
g4051
sI225
g4022
sI274
(dp4069
sI62
g3833
sI312
(dp4070
ssI268
(dp4071
I153
g3920
sI31
g3801
ssI269
(dp4072
I304
(dp4073
sI89
g3854
ssI270
(dp4074
I283
(dp4075
sI35
g3803
sI139
g3909
sI171
g3942
sI231
g4026
ssI274
(dp4076
I256
g4053
sI225
g4023
sI197
g3986
sI209
g4003
sI266
g4069
sI235
g4035
sI257
g4057
sI17
g3783
sI310
(dp4077
sI312
(dp4078
sI186
g3968
ssI277
(dp4079
I56
g3819
sI13
g3772
ssI278
(dp4080
I154
g3923
ssI279
(dp4081
I325
(dp4082
sI197
g3983
sI214
g4012
sI247
g4043
ssI281
(dp4083
I258
g4059
sI164
g3933
sI208
g3999
sI177
g3951
sI179
g3956
sI253
g4047
ssI283
(dp4084
I18
g3787
sI171
g3941
sI270
g4075
sI231
g4025
ssI285
(dp4085
I57
g3822
sI10
g3768
sI260
g4063
sI326
(dp4086
sI95
g3866
ssI286
(dp4087
I217
g4017
ssI290
(dp4088
I255
g4049
ssI292
(dp4089
I264
g4066
sI136
g3902
sI309
(dp4090
sI61
g3828
sI169
g3938
ssI297
(dp4091
I92
g3856
ssI298
(dp4092
I43
g3810
sI196
g3978
sI310
(dp4093
ssI304
(dp4094
I269
g4073
ssI309
(dp4095
I264
g4067
sI136
g3903
sI292
g4090
sI61
g3829
sI169
g3939
ssI310
(dp4096
I256
g4054
sI235
g4036
sI197
g3982
sI298
g4093
sI43
g3811
sI274
g4077
sI186
g3969
ssI311
(dp4097
I210
g4008
ssI312
(dp4098
I256
g4055
sI17
g3785
sI274
g4078
sI266
g4070
sI225
g4020
ssI314
(dp4099
I210
g4006
sI259
g4061
ssI315
(dp4100
I195
g3976
ssI316
(dp4101
I138
g3905
ssI320
(dp4102
I190
g3971
ssI323
(dp4103
I65
g3835
sI195
g3975
ssI325
(dp4104
I247
g4042
sI197
g3989
sI214
g4013
sI279
g4082
ssI326
(dp4105
I57
g3823
sI10
g3769
sI260
g4064
sI285
g4086
sI95
g3867
sssg291
(dp4106
sg293
g86
sg294
g3761
sbag1
(g2
g3
Ntp4107
Rp4108
(dp4109
g7
(dp4110
I4
(dp4111
sI10
(dp4112
sI13
(dp4113
sI16
(dp4114
sI17
(dp4115
sI19
(dp4116
sI22
(dp4117
sI23
(dp4118
sI24
(dp4119
sI26
(dp4120
sI27
(dp4121
sI31
(dp4122
sI32
(dp4123
sI40
(dp4124
sI41
(dp4125
sI43
(dp4126
sI45
(dp4127
sI53
(dp4128
sI57
(dp4129
sI62
(dp4130
sI64
(dp4131
sI65
(dp4132
sI67
(dp4133
sI68
(dp4134
sI69
(dp4135
sI73
(dp4136
sI74
(dp4137
sI77
(dp4138
sI78
(dp4139
sI80
(dp4140
sI87
(dp4141
sI88
(dp4142
sI89
(dp4143
sI93
(dp4144
sI94
(dp4145
sI95
(dp4146
sI99
(dp4147
sI103
(dp4148
sI106
(dp4149
sI110
(dp4150
sI114
(dp4151
sI115
(dp4152
sI116
(dp4153
sI118
(dp4154
sI121
(dp4155
sI127
(dp4156
sI129
(dp4157
sI134
(dp4158
sI135
(dp4159
sI139
(dp4160
sI140
(dp4161
sI144
(dp4162
sI154
(dp4163
sI155
(dp4164
sI160
(dp4165
sI164
(dp4166
sI166
(dp4167
sI167
(dp4168
sI171
(dp4169
sI174
(dp4170
sI175
(dp4171
sI177
(dp4172
sI179
(dp4173
sI182
(dp4174
sI183
(dp4175
sI186
(dp4176
sI190
(dp4177
sI194
(dp4178
sI195
(dp4179
sI196
(dp4180
sI197
(dp4181
sI198
(dp4182
sI201
(dp4183
sI203
(dp4184
sI205
(dp4185
sI208
(dp4186
sI209
(dp4187
sI210
(dp4188
sI211
(dp4189
sI213
(dp4190
sI214
(dp4191
sI215
(dp4192
sI217
(dp4193
sI223
(dp4194
sI225
(dp4195
sI228
(dp4196
sI229
(dp4197
sI234
(dp4198
sI235
(dp4199
sI240
(dp4200
sI243
(dp4201
sI247
(dp4202
sI253
(dp4203
sI255
(dp4204
sI256
(dp4205
sI258
(dp4206
sI259
(dp4207
sI260
(dp4208
sI264
(dp4209
sI266
(dp4210
sI267
(dp4211
sI270
(dp4212
sI274
(dp4213
sI277
(dp4214
sI278
(dp4215
sI279
(dp4216
sI281
(dp4217
sI283
(dp4218
sI285
(dp4219
sI286
(dp4220
sI287
(dp4221
sI290
(dp4222
sI298
(dp4223
sI300
(dp4224
sI302
(dp4225
sI305
(dp4226
sI310
(dp4227
sI312
(dp4228
sI314
(dp4229
sI315
(dp4230
sI320
(dp4231
sI322
(dp4232
sI323
(dp4233
sI325
(dp4234
sI326
(dp4235
ssg85
g86
sg87
g86
sg88
(dp4236
I4
(dp4237
I198
(dp4238
ssI10
(dp4239
I57
(dp4240
sI260
(dp4241
sI285
(dp4242
sI326
(dp4243
sI95
(dp4244
ssI13
(dp4245
I277
(dp4246
ssI16
(dp4247
I80
(dp4248
sI73
(dp4249
sI194
(dp4250
sI103
(dp4251
ssI17
(dp4252
I175
(dp4253
ssI19
(dp4254
I175
(dp4255
ssI22
(dp4256
I32
(dp4257
ssI23
(dp4258
I77
(dp4259
ssI24
(dp4260
I290
(dp4261
sI68
(dp4262
sI255
(dp4263
ssI26
(dp4264
I211
(dp4265
sI110
(dp4266
ssI27
(dp4267
I223
(dp4268
sI140
(dp4269
sI93
(dp4270
sI134
(dp4271
sI174
(dp4272
ssI31
(dp4273
I298
(dp4274
sI43
(dp4275
sI310
(dp4276
ssI32
(dp4277
I22
g4257
ssI40
(dp4278
I69
(dp4279
sI215
(dp4280
ssI41
(dp4281
I228
(dp4282
ssI43
(dp4283
I228
(dp4284
sI229
(dp4285
sI298
(dp4286
sI310
(dp4287
sI196
(dp4288
sI31
g4275
ssI45
(dp4289
I290
(dp4290
sI243
(dp4291
sI183
(dp4292
ssI53
(dp4293
I118
(dp4294
ssI57
(dp4295
I10
g4240
sI260
(dp4296
sI285
(dp4297
sI326
(dp4298
sI95
(dp4299
ssI62
(dp4300
I225
(dp4301
sI266
(dp4302
sI305
(dp4303
ssI64
(dp4304
I300
(dp4305
sI87
(dp4306
ssI65
(dp4307
I160
(dp4308
ssI67
(dp4309
I240
(dp4310
sI74
(dp4311
sI205
(dp4312
ssI68
(dp4313
I24
g4262
sI290
(dp4314
sI255
(dp4315
ssI69
(dp4316
I40
g4279
sI215
(dp4317
ssI73
(dp4318
I16
g4249
sI80
(dp4319
sI194
(dp4320
sI264
(dp4321
sI103
(dp4322
ssI74
(dp4323
I67
g4311
sI302
(dp4324
ssI77
(dp4325
I23
g4259
ssI78
(dp4326
I127
(dp4327
ssI80
(dp4328
I16
g4248
sI73
g4319
sI194
(dp4329
sI264
(dp4330
sI103
(dp4331
ssI87
(dp4332
I64
g4306
sI300
(dp4333
ssI88
(dp4334
I129
(dp4335
ssI89
(dp4336
I144
(dp4337
ssI93
(dp4338
I27
g4270
sI140
(dp4339
sI174
(dp4340
sI134
(dp4341
sI223
(dp4342
ssI94
(dp4343
I116
(dp4344
ssI95
(dp4345
I57
g4299
sI10
g4244
sI260
(dp4346
sI285
(dp4347
sI326
(dp4348
ssI99
(dp4349
I208
(dp4350
sI312
(dp4351
sI114
(dp4352
ssI103
(dp4353
I16
g4251
sI80
g4331
sI194
(dp4354
sI264
(dp4355
sI73
g4322
ssI106
(dp4356
I314
(dp4357
ssI110
(dp4358
I26
g4266
sI211
(dp4359
ssI114
(dp4360
I208
(dp4361
sI312
(dp4362
sI99
g4352
ssI115
(dp4363
I160
(dp4364
ssI116
(dp4365
I94
g4344
ssI118
(dp4366
I53
g4294
ssI121
(dp4367
I298
(dp4368
sI267
(dp4369
sI183
(dp4370
ssI127
(dp4371
I78
g4327
ssI129
(dp4372
I88
g4335
sI182
(dp4373
ssI134
(dp4374
I27
g4271
sI140
(dp4375
sI93
g4341
sI174
(dp4376
sI223
(dp4377
ssI135
(dp4378
I203
(dp4379
ssI139
(dp4380
I171
(dp4381
sI203
(dp4382
ssI140
(dp4383
I27
g4269
sI223
(dp4384
sI93
g4339
sI134
g4375
sI174
(dp4385
ssI144
(dp4386
I89
g4337
sI203
(dp4387
ssI154
(dp4388
I278
(dp4389
sI167
(dp4390
ssI155
(dp4391
I264
(dp4392
ssI160
(dp4393
I65
g4308
sI115
g4364
ssI164
(dp4394
I258
(dp4395
sI208
(dp4396
sI177
(dp4397
sI179
(dp4398
sI281
(dp4399
sI253
(dp4400
ssI166
(dp4401
I322
(dp4402
ssI167
(dp4403
I154
g4390
ssI171
(dp4404
I283
(dp4405
sI139
g4381
sI270
(dp4406
sI203
(dp4407
ssI174
(dp4408
I27
g4272
sI140
g4385
sI93
g4340
sI134
g4376
sI223
(dp4409
ssI175
(dp4410
I17
g4253
sI19
g4255
ssI177
(dp4411
I258
(dp4412
sI164
g4397
sI208
(dp4413
sI179
(dp4414
sI281
(dp4415
sI253
(dp4416
ssI179
(dp4417
I258
(dp4418
sI164
g4398
sI208
(dp4419
sI177
g4414
sI281
(dp4420
sI253
(dp4421
ssI182
(dp4422
I129
g4373
ssI183
(dp4423
I121
g4370
sI243
(dp4424
sI45
g4292
ssI186
(dp4425
I256
(dp4426
sI197
(dp4427
sI235
(dp4428
sI209
(dp4429
sI274
(dp4430
sI310
(dp4431
ssI190
(dp4432
I320
(dp4433
ssI194
(dp4434
I16
g4250
sI73
g4320
sI264
(dp4435
sI80
g4329
sI103
g4354
ssI195
(dp4436
I323
(dp4437
sI315
(dp4438
ssI196
(dp4439
I298
(dp4440
sI43
g4288
sI228
(dp4441
sI229
(dp4442
sI310
(dp4443
ssI197
(dp4444
I256
(dp4445
sI279
(dp4446
sI310
(dp4447
sI235
(dp4448
sI209
(dp4449
sI274
(dp4450
sI214
(dp4451
sI247
(dp4452
sI186
g4427
ssI198
(dp4453
I201
(dp4454
sI4
g4238
ssI201
(dp4455
I198
g4454
ssI203
(dp4456
I144
g4387
sI213
(dp4457
sI139
g4382
sI171
g4407
sI135
g4379
ssI205
(dp4458
I240
(dp4459
sI67
g4312
ssI208
(dp4460
I258
(dp4461
sI99
g4350
sI164
g4396
sI177
g4413
sI114
g4361
sI179
g4419
sI281
(dp4462
sI253
(dp4463
ssI209
(dp4464
I256
(dp4465
sI274
(dp4466
sI186
g4429
sI235
(dp4467
sI197
g4449
ssI210
(dp4468
I259
(dp4469
ssI211
(dp4470
I26
g4265
sI110
g4359
ssI213
(dp4471
I203
g4457
ssI214
(dp4472
I279
(dp4473
sI197
g4451
sI325
(dp4474
sI247
(dp4475
ssI215
(dp4476
I40
g4280
sI69
g4317
ssI217
(dp4477
I286
(dp4478
ssI223
(dp4479
I27
g4268
sI140
g4384
sI93
g4342
sI174
g4409
sI134
g4377
ssI225
(dp4480
I312
(dp4481
sI256
(dp4482
sI266
(dp4483
sI274
(dp4484
sI62
g4301
ssI228
(dp4485
I196
g4441
sI229
(dp4486
sI41
g4282
sI298
(dp4487
sI43
g4284
sI310
(dp4488
ssI229
(dp4489
I228
g4486
sI298
(dp4490
sI43
g4285
sI196
g4442
sI310
(dp4491
ssI234
(dp4492
I264
(dp4493
ssI235
(dp4494
I256
(dp4495
sI197
g4448
sI209
g4467
sI274
(dp4496
sI310
(dp4497
sI186
g4428
ssI240
(dp4498
I67
g4310
sI205
g4459
ssI243
(dp4499
I45
g4291
sI183
g4424
ssI247
(dp4500
I325
(dp4501
sI197
g4452
sI214
g4475
sI279
(dp4502
ssI253
(dp4503
I258
(dp4504
sI164
g4400
sI208
g4463
sI177
g4416
sI179
g4421
sI281
(dp4505
ssI255
(dp4506
I24
g4263
sI290
(dp4507
sI68
g4315
ssI256
(dp4508
I225
g4482
sI197
g4445
sI266
(dp4509
sI235
g4495
sI209
g4465
sI274
(dp4510
sI312
(dp4511
sI186
g4426
sI287
(dp4512
ssI258
(dp4513
I164
g4395
sI208
g4461
sI177
g4412
sI179
g4418
sI281
(dp4514
sI253
g4504
ssI259
(dp4515
I210
g4469
sI314
(dp4516
ssI260
(dp4517
I57
g4296
sI10
g4241
sI285
(dp4518
sI326
(dp4519
sI95
g4346
ssI264
(dp4520
I194
g4435
sI103
g4355
sI73
g4321
sI234
g4493
sI80
g4330
sI155
g4392
ssI266
(dp4521
I256
g4509
sI225
g4483
sI305
(dp4522
sI274
(dp4523
sI312
(dp4524
sI62
g4302
ssI267
(dp4525
I121
g4369
sI298
(dp4526
ssI270
(dp4527
I171
g4406
ssI274
(dp4528
I256
g4510
sI225
g4484
sI197
g4450
sI266
g4523
sI235
g4496
sI209
g4466
sI310
(dp4529
sI312
(dp4530
sI186
g4430
ssI277
(dp4531
I13
g4246
ssI278
(dp4532
I154
g4389
ssI279
(dp4533
I325
(dp4534
sI197
g4446
sI214
g4473
sI247
g4502
ssI281
(dp4535
I258
g4514
sI164
g4399
sI208
g4462
sI177
g4415
sI179
g4420
sI253
g4505
ssI283
(dp4536
I171
g4405
ssI285
(dp4537
I57
g4297
sI10
g4242
sI260
g4518
sI326
(dp4538
sI95
g4347
ssI286
(dp4539
I217
g4478
ssI287
(dp4540
I256
g4512
ssI290
(dp4541
I24
g4261
sI68
g4314
sI45
g4290
sI255
g4507
ssI298
(dp4542
I267
g4526
sI196
g4440
sI229
g4490
sI43
g4286
sI310
(dp4543
sI121
g4368
sI228
g4487
sI31
g4274
ssI300
(dp4544
I64
g4305
sI87
g4333
ssI302
(dp4545
I74
g4324
ssI305
(dp4546
I266
g4522
sI62
g4303
ssI310
(dp4547
I229
g4491
sI228
g4488
sI197
g4447
sI298
g4543
sI43
g4287
sI274
g4529
sI235
g4497
sI196
g4443
sI186
g4431
sI31
g4276
ssI312
(dp4548
I256
g4511
sI225
g4481
sI99
g4351
sI266
g4524
sI114
g4362
sI274
g4530
ssI314
(dp4549
I106
g4357
sI259
g4516
ssI315
(dp4550
I195
g4438
ssI320
(dp4551
I190
g4433
ssI322
(dp4552
I166
g4402
ssI323
(dp4553
I195
g4437
ssI325
(dp4554
I247
g4501
sI214
g4474
sI279
g4534
ssI326
(dp4555
I57
g4298
sI10
g4243
sI260
g4519
sI285
g4538
sI95
g4348
sssg291
(dp4556
sg293
g86
sg294
g4236
sbag1
(g2
g3
Ntp4557
Rp4558
(dp4559
g7
(dp4560
I256
(dp4561
sI320
(dp4562
sI4
(dp4563
sI129
(dp4564
sI266
(dp4565
sI267
(dp4566
sI270
(dp4567
sI144
(dp4568
sI17
(dp4569
sI146
(dp4570
sI19
(dp4571
sI22
(dp4572
sI23
(dp4573
sI24
(dp4574
sI196
(dp4575
sI26
(dp4576
sI283
(dp4577
sI31
(dp4578
sI32
(dp4579
sI290
(dp4580
sI163
(dp4581
sI162
(dp4582
sI65
(dp4583
sI39
(dp4584
sI40
(dp4585
sI41
(dp4586
sI298
(dp4587
sI43
(dp4588
sI300
(dp4589
sI45
(dp4590
sI302
(dp4591
sI303
(dp4592
sI305
(dp4593
sI243
(dp4594
sI53
(dp4595
sI310
(dp4596
sI183
(dp4597
sI312
(dp4598
sI197
(dp4599
sI186
(dp4600
sI287
(dp4601
sI62
(dp4602
sI325
(dp4603
sI64
(dp4604
sI160
(dp4605
sI322
(dp4606
sI139
(dp4607
sI68
(dp4608
sI69
(dp4609
sI279
(dp4610
sI71
(dp4611
sI201
(dp4612
sI74
(dp4613
sI75
(dp4614
sI77
(dp4615
sI78
(dp4616
sI210
(dp4617
sI211
(dp4618
sI213
(dp4619
sI214
(dp4620
sI87
(dp4621
sI88
(dp4622
sI89
(dp4623
sI314
(dp4624
sI226
(dp4625
sI99
(dp4626
sI228
(dp4627
sI229
(dp4628
sI106
(dp4629
sI235
(dp4630
sI110
(dp4631
sI114
(dp4632
sI115
(dp4633
sI118
(dp4634
sI247
(dp4635
sI121
(dp4636
sI127
(dp4637
sI166
(dp4638
sI255
(dp4639
ssg85
g86
sg87
g86
sg88
(dp4640
I256
(dp4641
I43
(dp4642
sI287
(dp4643
ssI320
(dp4644
I78
(dp4645
sI127
(dp4646
ssI4
(dp4647
I201
(dp4648
ssI129
(dp4649
I88
(dp4650
sI267
(dp4651
ssI266
(dp4652
I305
(dp4653
sI62
(dp4654
ssI267
(dp4655
I121
(dp4656
sI298
(dp4657
sI129
g4651
ssI270
(dp4658
I283
(dp4659
sI162
(dp4660
sI139
(dp4661
ssI144
(dp4662
I89
(dp4663
sI211
(dp4664
sI213
(dp4665
ssI17
(dp4666
I19
(dp4667
ssI146
(dp4668
I312
(dp4669
ssI19
(dp4670
I17
g4667
ssI22
(dp4671
I32
(dp4672
sI23
(dp4673
ssI23
(dp4674
I77
(dp4675
sI22
g4673
ssI24
(dp4676
I290
(dp4677
sI68
(dp4678
ssI196
(dp4679
I298
(dp4680
sI43
(dp4681
sI228
(dp4682
sI229
(dp4683
sI310
(dp4684
ssI26
(dp4685
I211
(dp4686
sI110
(dp4687
ssI283
(dp4688
I162
(dp4689
sI270
g4659
ssI31
(dp4690
I298
(dp4691
sI43
(dp4692
sI310
(dp4693
ssI32
(dp4694
I22
g4672
ssI290
(dp4695
I24
g4677
sI89
(dp4696
sI68
(dp4697
sI45
(dp4698
sI255
(dp4699
ssI163
(dp4700
I75
(dp4701
ssI162
(dp4702
I283
g4689
sI139
(dp4703
sI270
g4660
ssI65
(dp4704
I160
(dp4705
ssI39
(dp4706
I226
(dp4707
ssI40
(dp4708
I69
(dp4709
ssI41
(dp4710
I228
(dp4711
ssI298
(dp4712
I196
g4680
sI229
(dp4713
sI267
g4657
sI121
(dp4714
sI228
(dp4715
sI31
g4691
ssI43
(dp4716
I256
g4642
sI228
(dp4717
sI196
g4681
sI229
(dp4718
sI31
g4692
ssI300
(dp4719
I64
(dp4720
sI87
(dp4721
ssI45
(dp4722
I290
g4698
ssI302
(dp4723
I74
(dp4724
ssI303
(dp4725
I71
(dp4726
ssI305
(dp4727
I266
g4653
sI62
(dp4728
ssI243
(dp4729
I183
(dp4730
ssI53
(dp4731
I118
(dp4732
ssI310
(dp4733
I196
g4684
sI228
(dp4734
sI229
(dp4735
sI31
g4693
ssI183
(dp4736
I243
g4730
ssI312
(dp4737
I114
(dp4738
sI99
(dp4739
sI146
g4669
ssI197
(dp4740
I186
(dp4741
sI235
(dp4742
sI325
(dp4743
ssI186
(dp4744
I235
(dp4745
sI197
g4741
ssI287
(dp4746
I256
g4643
ssI62
(dp4747
I305
g4728
sI266
g4654
ssI325
(dp4748
I197
g4743
ssI64
(dp4749
I300
g4720
sI87
(dp4750
ssI160
(dp4751
I65
g4705
sI115
(dp4752
ssI322
(dp4753
I166
(dp4754
ssI139
(dp4755
I162
g4703
sI270
g4661
ssI68
(dp4756
I24
g4678
sI290
g4697
sI255
(dp4757
ssI69
(dp4758
I40
g4709
ssI279
(dp4759
I214
(dp4760
sI247
(dp4761
ssI71
(dp4762
I303
g4726
ssI201
(dp4763
I4
g4648
ssI74
(dp4764
I302
g4724
ssI75
(dp4765
I163
g4701
ssI77
(dp4766
I23
g4675
ssI78
(dp4767
I320
g4645
sI127
(dp4768
ssI210
(dp4769
I314
(dp4770
ssI211
(dp4771
I144
g4664
sI26
g4686
sI110
(dp4772
ssI213
(dp4773
I144
g4665
ssI214
(dp4774
I279
g4760
sI247
(dp4775
ssI87
(dp4776
I64
g4750
sI300
g4721
ssI88
(dp4777
I129
g4650
ssI89
(dp4778
I144
g4663
sI290
g4696
ssI314
(dp4779
I210
g4770
sI106
(dp4780
ssI226
(dp4781
I39
g4707
ssI99
(dp4782
I312
g4739
ssI228
(dp4783
I196
g4682
sI229
(dp4784
sI41
g4711
sI298
g4715
sI43
g4717
sI310
g4734
ssI229
(dp4785
I228
g4784
sI298
g4713
sI43
g4718
sI196
g4683
sI310
g4735
ssI106
(dp4786
I314
g4780
ssI235
(dp4787
I186
g4745
sI197
g4742
ssI110
(dp4788
I26
g4687
sI211
g4772
ssI114
(dp4789
I312
g4738
ssI115
(dp4790
I160
g4752
ssI118
(dp4791
I53
g4732
ssI247
(dp4792
I214
g4775
sI279
g4761
ssI121
(dp4793
I298
g4714
sI267
g4656
ssI127
(dp4794
I320
g4646
sI78
g4768
ssI166
(dp4795
I322
g4754
ssI255
(dp4796
I290
g4699
sI68
g4757
sssg291
(dp4797
sg293
g86
sg294
g4640
sba.