(lp0
ccopy_reg
_reconstructor
p1
(cnetworkx.classes.graph
Graph
p2
c__builtin__
object
p3
Ntp4
Rp5
(dp6
S'node'
p7
(dp8
I0
(dp9
sI1
(dp10
sI2
(dp11
sI3
(dp12
sI5
(dp13
sI6
(dp14
sI7
(dp15
sI8
(dp16
sI9
(dp17
sI10
(dp18
sI11
(dp19
sI12
(dp20
sI14
(dp21
sI16
(dp22
sI17
(dp23
sI18
(dp24
sI19
(dp25
sI20
(dp26
sI21
(dp27
sI22
(dp28
sI23
(dp29
sI24
(dp30
sI27
(dp31
sI28
(dp32
sI29
(dp33
sI30
(dp34
sI31
(dp35
sI32
(dp36
sI33
(dp37
sI34
(dp38
sI35
(dp39
sI36
(dp40
sI37
(dp41
sI38
(dp42
sI39
(dp43
sI40
(dp44
sI44
(dp45
sI45
(dp46
sI46
(dp47
sI47
(dp48
sI48
(dp49
sI51
(dp50
sI52
(dp51
sI53
(dp52
sI54
(dp53
sI56
(dp54
sI57
(dp55
sI58
(dp56
sI59
(dp57
sI60
(dp58
sI61
(dp59
sI62
(dp60
sI63
(dp61
sI64
(dp62
sI65
(dp63
sI66
(dp64
sI67
(dp65
sI68
(dp66
sI70
(dp67
sI71
(dp68
sI76
(dp69
sI77
(dp70
sI78
(dp71
sI79
(dp72
sI82
(dp73
sI84
(dp74
sI85
(dp75
sI86
(dp76
sI87
(dp77
sI88
(dp78
sI89
(dp79
sI90
(dp80
ssS'node_dict_factory'
p81
c__builtin__
dict
p82
sS'edge_attr_dict_factory'
p83
g82
sS'edge'
p84
(dp85
I0
(dp86
I24
(dp87
sI65
(dp88
sI3
(dp89
sI14
(dp90
ssI1
(dp91
I33
(dp92
sI2
(dp93
sI6
(dp94
sI40
(dp95
sI10
(dp96
sI76
(dp97
sI78
(dp98
sI16
(dp99
ssI2
(dp100
I33
(dp101
sI1
g93
sI6
(dp102
sI71
(dp103
sI40
(dp104
sI60
(dp105
sI10
(dp106
sI39
(dp107
sI28
(dp108
ssI3
(dp109
I0
g89
sI8
(dp110
sI11
(dp111
sI44
(dp112
sI14
(dp113
sI53
(dp114
ssI5
(dp115
I39
(dp116
sI48
(dp117
sI18
(dp118
sI51
(dp119
sI84
(dp120
sI22
(dp121
ssI6
(dp122
I1
g94
sI2
g102
sI33
(dp123
sI40
(dp124
sI10
(dp125
sI12
(dp126
sI84
(dp127
sI27
(dp128
ssI7
(dp129
I16
(dp130
sI33
(dp131
sI59
(dp132
sI78
(dp133
sI88
(dp134
ssI8
(dp135
I90
(dp136
sI3
g110
sI37
(dp137
ssI9
(dp138
I17
(dp139
sI30
(dp140
sI53
(dp141
sI62
(dp142
ssI10
(dp143
I1
g96
sI2
g106
sI38
(dp144
sI6
g125
sI33
(dp145
sI40
(dp146
sI16
(dp147
sI84
(dp148
ssI11
(dp149
I16
(dp150
sI34
(dp151
sI3
g111
sI14
(dp152
sI48
(dp153
sI84
(dp154
sI23
(dp155
sI56
(dp156
sI58
(dp157
ssI12
(dp158
I64
(dp159
sI6
g126
sI76
(dp160
sI44
(dp161
sI77
(dp162
sI14
(dp163
sI48
(dp164
sI20
(dp165
sI58
(dp166
ssI14
(dp167
I0
g90
sI65
(dp168
sI34
(dp169
sI3
g113
sI37
(dp170
sI39
(dp171
sI11
g152
sI12
g163
sI78
(dp172
sI48
(dp173
sI82
(dp174
sI20
(dp175
sI85
(dp176
sI24
(dp177
sI58
(dp178
ssI16
(dp179
I1
g99
sI70
(dp180
sI33
(dp181
sI10
g147
sI11
g150
sI46
(dp182
sI53
(dp183
sI7
g130
ssI17
(dp184
I56
(dp185
sI9
g139
sI18
(dp186
sI68
(dp187
ssI18
(dp188
I68
(dp189
sI37
(dp190
sI45
(dp191
sI47
(dp192
sI17
g186
sI5
g118
ssI19
(dp193
I24
(dp194
sI76
(dp195
sI62
(dp196
sI86
(dp197
sI79
(dp198
ssI20
(dp199
I58
(dp200
sI12
g165
sI78
(dp201
sI14
g175
ssI21
(dp202
I56
(dp203
sI88
(dp204
sI59
(dp205
sI76
(dp206
ssI22
(dp207
I32
(dp208
sI64
(dp209
sI5
g121
sI45
(dp210
sI77
(dp211
sI85
(dp212
sI58
(dp213
ssI23
(dp214
I11
g155
sI61
(dp215
ssI24
(dp216
I0
g87
sI14
g177
sI48
(dp217
sI19
g194
sI87
(dp218
sI31
(dp219
ssI27
(dp220
I65
(dp221
sI6
g128
sI40
(dp222
sI76
(dp223
sI46
(dp224
sI57
(dp225
ssI28
(dp226
I2
g108
sI38
(dp227
sI70
(dp228
sI76
(dp229
sI53
(dp230
sI57
(dp231
sI30
(dp232
ssI29
(dp233
I39
(dp234
ssI30
(dp235
I9
g140
sI28
g232
ssI31
(dp236
I24
g219
sI58
(dp237
ssI32
(dp238
I58
(dp239
sI38
(dp240
sI22
g208
ssI33
(dp241
I1
g92
sI2
g101
sI6
g123
sI7
g131
sI40
(dp242
sI10
g145
sI44
(dp243
sI16
g181
ssI34
(dp244
I11
g151
sI14
g169
sI86
(dp245
ssI35
(dp246
I36
(dp247
sI79
(dp248
sI51
(dp249
sI52
(dp250
sI86
(dp251
sI87
(dp252
sI84
(dp253
ssI36
(dp254
I35
g247
sI79
(dp255
ssI37
(dp256
I8
g137
sI58
(dp257
sI18
g190
sI82
(dp258
sI14
g170
ssI38
(dp259
I32
g240
sI10
g144
sI28
g227
sI45
(dp260
sI85
(dp261
ssI39
(dp262
I65
(dp263
sI2
g107
sI5
g116
sI45
(dp264
sI14
g171
sI51
(dp265
sI58
(dp266
sI29
g234
ssI40
(dp267
I33
g242
sI2
g104
sI6
g124
sI1
g95
sI10
g146
sI57
(dp268
sI27
g222
ssI44
(dp269
I65
(dp270
sI3
g112
sI33
g243
sI12
g161
sI45
(dp271
sI51
(dp272
ssI45
(dp273
I65
(dp274
sI38
g260
sI39
g264
sI44
g271
sI48
(dp275
sI18
g191
sI51
(dp276
sI85
(dp277
sI22
g210
sI58
(dp278
ssI46
(dp279
I56
(dp280
sI57
(dp281
sI27
g224
sI16
g182
sI89
(dp282
ssI47
(dp283
I18
g192
ssI48
(dp284
I5
g117
sI11
g153
sI12
g164
sI45
g275
sI14
g173
sI24
g217
ssI51
(dp285
I65
(dp286
sI35
g249
sI5
g119
sI39
g265
sI44
g272
sI45
g276
sI54
(dp287
sI58
(dp288
ssI52
(dp289
I35
g250
sI87
(dp290
ssI53
(dp291
I3
g114
sI70
(dp292
sI9
g141
sI16
g183
sI28
g230
sI61
(dp293
ssI54
(dp294
I51
g287
ssI56
(dp295
I11
g156
sI76
(dp296
sI46
g280
sI17
g185
sI84
(dp297
sI21
g203
sI88
(dp298
ssI57
(dp299
I40
g268
sI76
(dp300
sI46
g281
sI88
(dp301
sI27
g225
sI28
g231
sI62
(dp302
ssI58
(dp303
I32
g239
sI65
(dp304
sI37
g257
sI39
g266
sI11
g157
sI12
g166
sI45
g278
sI78
(dp305
sI82
(dp306
sI51
g288
sI20
g200
sI14
g178
sI22
g213
sI62
(dp307
sI31
g237
ssI59
(dp308
I67
(dp309
sI21
g205
sI7
g132
ssI60
(dp310
I2
g105
sI79
(dp311
ssI61
(dp312
I66
(dp313
sI53
g293
sI86
(dp314
sI23
g215
ssI62
(dp315
I9
g142
sI58
g307
sI19
g196
sI57
g302
ssI63
(dp316
I89
(dp317
ssI64
(dp318
I12
g159
sI77
(dp319
sI22
g209
ssI65
(dp320
I0
g88
sI39
g263
sI44
g270
sI45
g274
sI14
g168
sI51
g286
sI58
g304
sI27
g221
ssI66
(dp321
I61
g313
ssI67
(dp322
I59
g309
sI84
(dp323
ssI68
(dp324
I17
g187
sI18
g189
ssI70
(dp325
I16
g180
sI28
g228
sI53
g292
ssI71
(dp326
I2
g103
ssI76
(dp327
I1
g97
sI12
g160
sI78
(dp328
sI88
(dp329
sI19
g195
sI21
g206
sI56
g296
sI57
g300
sI27
g223
sI28
g229
ssI77
(dp330
I64
g319
sI82
(dp331
sI12
g162
sI22
g211
sI86
(dp332
ssI78
(dp333
I1
g98
sI7
g133
sI76
g328
sI14
g172
sI20
g201
sI58
g305
ssI79
(dp334
I35
g248
sI36
g255
sI19
g198
sI84
(dp335
sI86
(dp336
sI60
g311
ssI82
(dp337
I58
g306
sI37
g258
sI14
g174
sI77
g331
ssI84
(dp338
I67
g323
sI5
g120
sI6
g127
sI10
g148
sI11
g154
sI79
g335
sI35
g253
sI86
(dp339
sI56
g297
ssI85
(dp340
I38
g261
sI14
g176
sI22
g212
sI45
g277
ssI86
(dp341
I34
g245
sI35
g251
sI77
g332
sI79
g336
sI19
g197
sI84
g339
sI61
g314
ssI87
(dp342
I24
g218
sI35
g252
sI52
g290
ssI88
(dp343
I56
g298
sI57
g301
sI76
g329
sI21
g204
sI7
g134
ssI89
(dp344
I46
g282
sI63
g317
ssI90
(dp345
I8
g136
sssS'graph'
p346
(dp347
sS'adjlist_dict_factory'
p348
g82
sS'adj'
p349
g85
sbag1
(g2
g3
Ntp350
Rp351
(dp352
g7
(dp353
I0
(dp354
sI4
(dp355
sI5
(dp356
sI6
(dp357
sI7
(dp358
sI11
(dp359
sI12
(dp360
sI14
(dp361
sI16
(dp362
sI19
(dp363
sI21
(dp364
sI22
(dp365
sI24
(dp366
sI25
(dp367
sI27
(dp368
sI28
(dp369
sI30
(dp370
sI31
(dp371
sI32
(dp372
sI36
(dp373
sI37
(dp374
sI38
(dp375
sI39
(dp376
sI40
(dp377
sI41
(dp378
sI42
(dp379
sI44
(dp380
sI45
(dp381
sI47
(dp382
sI48
(dp383
sI51
(dp384
sI52
(dp385
sI53
(dp386
sI57
(dp387
sI58
(dp388
sI59
(dp389
sI61
(dp390
sI63
(dp391
sI64
(dp392
sI66
(dp393
sI67
(dp394
sI69
(dp395
sI70
(dp396
sI71
(dp397
sI76
(dp398
sI77
(dp399
sI78
(dp400
sI79
(dp401
sI82
(dp402
sI84
(dp403
sI85
(dp404
sI86
(dp405
sI87
(dp406
sI88
(dp407
sI90
(dp408
sI91
(dp409
ssg81
g82
sg83
g82
sg84
(dp410
I0
(dp411
I24
(dp412
sI14
(dp413
ssI4
(dp414
I41
(dp415
ssI5
(dp416
I85
(dp417
sI14
(dp418
ssI6
(dp419
I88
(dp420
ssI7
(dp421
I25
(dp422
ssI11
(dp423
I44
(dp424
ssI12
(dp425
I88
(dp426
sI78
(dp427
ssI14
(dp428
I0
g413
sI5
g418
sI39
(dp429
sI47
(dp430
sI22
(dp431
sI24
(dp432
sI58
(dp433
ssI16
(dp434
I59
(dp435
ssI19
(dp436
I59
(dp437
sI76
(dp438
sI79
(dp439
ssI21
(dp440
I42
(dp441
sI84
(dp442
sI61
(dp443
sI79
(dp444
ssI22
(dp445
I64
(dp446
sI14
g431
sI85
(dp447
sI38
(dp448
ssI24
(dp449
I48
(dp450
sI0
g412
sI45
(dp451
sI14
g432
sI63
(dp452
ssI25
(dp453
I36
(dp454
sI47
(dp455
sI28
(dp456
sI53
(dp457
sI7
g422
ssI27
(dp458
I57
(dp459
ssI28
(dp460
I25
g456
sI69
(dp461
sI30
(dp462
sI53
(dp463
ssI30
(dp464
I90
(dp465
sI28
g462
ssI31
(dp466
I51
(dp467
ssI32
(dp468
I38
(dp469
ssI36
(dp470
I25
g454
ssI37
(dp471
I82
(dp472
ssI38
(dp473
I32
g469
sI22
g448
ssI39
(dp474
I14
g429
ssI40
(dp475
I88
(dp476
ssI41
(dp477
I4
g415
sI79
(dp478
ssI42
(dp479
I52
(dp480
sI21
g441
ssI44
(dp481
I51
(dp482
sI11
g424
ssI45
(dp483
I24
g451
ssI47
(dp484
I25
g455
sI14
g430
ssI48
(dp485
I24
g450
ssI51
(dp486
I31
g467
sI44
g482
sI71
(dp487
ssI52
(dp488
I42
g480
ssI53
(dp489
I66
(dp490
sI69
(dp491
sI70
(dp492
sI25
g457
sI28
g463
sI63
(dp493
ssI57
(dp494
I88
(dp495
sI27
g459
ssI58
(dp496
I14
g433
ssI59
(dp497
I16
g435
sI19
g437
sI78
(dp498
ssI61
(dp499
I66
(dp500
sI69
(dp501
sI21
g443
ssI63
(dp502
I24
g452
sI53
g493
sI70
(dp503
ssI64
(dp504
I22
g446
ssI66
(dp505
I61
g500
sI53
g490
ssI67
(dp506
I76
(dp507
sI78
(dp508
ssI69
(dp509
I28
g461
sI61
g501
sI53
g491
ssI70
(dp510
I53
g492
sI63
g503
ssI71
(dp511
I51
g487
ssI76
(dp512
I67
g507
sI19
g438
sI78
(dp513
ssI77
(dp514
I82
(dp515
ssI78
(dp516
I76
g513
sI67
g508
sI12
g427
sI59
g498
ssI79
(dp517
I41
g478
sI19
g439
sI21
g444
sI87
(dp518
ssI82
(dp519
I37
g472
sI77
g515
ssI84
(dp520
I21
g442
ssI85
(dp521
I5
g417
sI22
g447
ssI86
(dp522
I91
(dp523
ssI87
(dp524
I79
g518
ssI88
(dp525
I40
g476
sI57
g495
sI12
g426
sI6
g420
ssI90
(dp526
I30
g465
ssI91
(dp527
I86
g523
sssg346
(dp528
sg348
g82
sg349
g410
sbag1
(g2
g3
Ntp529
Rp530
(dp531
g7
(dp532
I0
(dp533
sI1
(dp534
sI4
(dp535
sI5
(dp536
sI6
(dp537
sI8
(dp538
sI9
(dp539
sI11
(dp540
sI12
(dp541
sI14
(dp542
sI16
(dp543
sI19
(dp544
sI20
(dp545
sI21
(dp546
sI22
(dp547
sI24
(dp548
sI25
(dp549
sI28
(dp550
sI29
(dp551
sI30
(dp552
sI32
(dp553
sI36
(dp554
sI37
(dp555
sI38
(dp556
sI39
(dp557
sI40
(dp558
sI41
(dp559
sI44
(dp560
sI45
(dp561
sI46
(dp562
sI47
(dp563
sI48
(dp564
sI50
(dp565
sI51
(dp566
sI52
(dp567
sI53
(dp568
sI56
(dp569
sI57
(dp570
sI58
(dp571
sI59
(dp572
sI60
(dp573
sI61
(dp574
sI62
(dp575
sI63
(dp576
sI64
(dp577
sI65
(dp578
sI66
(dp579
sI69
(dp580
sI70
(dp581
sI75
(dp582
sI76
(dp583
sI77
(dp584
sI78
(dp585
sI79
(dp586
sI81
(dp587
sI82
(dp588
sI84
(dp589
sI85
(dp590
sI86
(dp591
sI87
(dp592
sI88
(dp593
sI89
(dp594
sI90
(dp595
sI91
(dp596
ssg81
g82
sg83
g82
sg84
(dp597
I0
(dp598
I45
(dp599
sI14
(dp600
ssI1
(dp601
I88
(dp602
sI65
(dp603
sI59
(dp604
sI76
(dp605
ssI4
(dp606
I86
(dp607
sI87
(dp608
ssI5
(dp609
I11
(dp610
ssI6
(dp611
I88
(dp612
ssI8
(dp613
I50
(dp614
sI37
(dp615
sI82
(dp616
sI85
(dp617
sI39
(dp618
ssI9
(dp619
I66
(dp620
sI19
(dp621
sI62
(dp622
ssI11
(dp623
I57
(dp624
sI44
(dp625
sI5
g610
sI86
(dp626
ssI12
(dp627
I58
(dp628
sI59
(dp629
sI78
(dp630
sI29
(dp631
sI86
(dp632
ssI14
(dp633
I0
g600
sI65
(dp634
sI37
(dp635
sI45
(dp636
sI48
(dp637
sI50
(dp638
sI58
(dp639
ssI16
(dp640
I59
(dp641
sI76
(dp642
ssI19
(dp643
I9
g621
sI44
(dp644
ssI20
(dp645
I40
(dp646
sI84
(dp647
ssI21
(dp648
I76
(dp649
sI61
(dp650
sI69
(dp651
ssI22
(dp652
I64
(dp653
sI32
(dp654
sI38
(dp655
sI39
(dp656
sI51
(dp657
sI85
(dp658
ssI24
(dp659
I48
(dp660
sI32
(dp661
ssI25
(dp662
I75
(dp663
sI86
(dp664
sI79
(dp665
ssI28
(dp666
I62
(dp667
ssI29
(dp668
I66
(dp669
sI12
g631
sI53
(dp670
sI91
(dp671
sI30
(dp672
sI63
(dp673
ssI30
(dp674
I57
(dp675
sI66
(dp676
sI63
(dp677
sI29
g672
sI53
(dp678
ssI32
(dp679
I24
g661
sI22
g654
sI38
(dp680
ssI36
(dp681
I50
(dp682
ssI37
(dp683
I8
g615
sI58
(dp684
sI14
g635
sI47
(dp685
ssI38
(dp686
I32
g680
sI58
(dp687
sI44
(dp688
sI45
(dp689
sI22
g655
ssI39
(dp690
I8
g618
sI58
(dp691
sI85
(dp692
sI22
g656
ssI40
(dp693
I41
(dp694
sI20
g646
ssI41
(dp695
I40
g694
sI86
(dp696
ssI44
(dp697
I38
g688
sI11
g625
sI45
(dp698
sI19
g644
sI86
(dp699
sI58
(dp700
sI60
(dp701
ssI45
(dp702
I0
g599
sI65
(dp703
sI38
g689
sI44
g698
sI14
g636
sI85
(dp704
sI58
(dp705
ssI46
(dp706
I89
(dp707
ssI47
(dp708
I58
(dp709
sI37
g685
ssI48
(dp710
I24
g660
sI14
g637
ssI50
(dp711
I36
g682
sI8
g614
sI75
(dp712
sI14
g638
sI84
(dp713
sI86
(dp714
sI59
(dp715
ssI51
(dp716
I90
(dp717
sI22
g657
ssI52
(dp718
I75
(dp719
sI84
(dp720
sI87
(dp721
ssI53
(dp722
I69
(dp723
sI70
(dp724
sI62
(dp725
sI29
g670
sI30
g678
sI63
(dp726
ssI56
(dp727
I57
(dp728
sI59
(dp729
ssI57
(dp730
I56
g728
sI11
g624
sI30
g675
ssI58
(dp731
I65
(dp732
sI37
g684
sI38
g687
sI39
g691
sI12
g628
sI44
g700
sI45
g705
sI14
g639
sI47
g709
sI85
(dp733
ssI59
(dp734
I1
g604
sI76
(dp735
sI12
g629
sI78
(dp736
sI16
g641
sI50
g715
sI56
g729
ssI60
(dp737
I44
g701
ssI61
(dp738
I90
(dp739
sI21
g650
sI69
(dp740
ssI62
(dp741
I9
g622
sI28
g667
sI53
g725
ssI63
(dp742
I29
g673
sI30
g677
sI53
g726
ssI64
(dp743
I77
(dp744
sI22
g653
ssI65
(dp745
I1
g603
sI58
g732
sI45
g703
sI14
g634
sI85
(dp746
ssI66
(dp747
I9
g620
sI29
g669
sI30
g676
ssI69
(dp748
I53
g723
sI61
g740
sI21
g651
ssI70
(dp749
I53
g724
ssI75
(dp750
I25
g663
sI50
g712
sI84
(dp751
sI52
g719
sI79
(dp752
ssI76
(dp753
I1
g605
sI78
(dp754
sI16
g642
sI81
(dp755
sI21
g649
sI59
g735
ssI77
(dp756
I64
g744
ssI78
(dp757
I81
(dp758
sI59
g736
sI76
g754
sI12
g630
ssI79
(dp759
I25
g665
sI75
g752
ssI81
(dp760
I76
g755
sI78
g758
ssI82
(dp761
I8
g616
ssI84
(dp762
I52
g720
sI50
g713
sI75
g751
sI20
g647
sI89
(dp763
ssI85
(dp764
I65
g746
sI39
g692
sI8
g617
sI45
g704
sI22
g658
sI58
g733
ssI86
(dp765
I4
g607
sI41
g696
sI11
g626
sI12
g632
sI44
g699
sI50
g714
sI25
g664
ssI87
(dp766
I52
g721
sI4
g608
ssI88
(dp767
I1
g602
sI6
g612
ssI89
(dp768
I84
g763
sI46
g707
ssI90
(dp769
I51
g717
sI61
g739
ssI91
(dp770
I29
g671
sssg346
(dp771
sg348
g82
sg349
g597
sbag1
(g2
g3
Ntp772
Rp773
(dp774
g7
(dp775
I0
(dp776
sI1
(dp777
sI2
(dp778
sI3
(dp779
sI4
(dp780
sI5
(dp781
sI7
(dp782
sI9
(dp783
sI11
(dp784
sI12
(dp785
sI14
(dp786
sI15
(dp787
sI17
(dp788
sI18
(dp789
sI19
(dp790
sI20
(dp791
sI21
(dp792
sI22
(dp793
sI24
(dp794
sI25
(dp795
sI28
(dp796
sI29
(dp797
sI30
(dp798
sI32
(dp799
sI33
(dp800
sI35
(dp801
sI38
(dp802
sI39
(dp803
sI40
(dp804
sI42
(dp805
sI44
(dp806
sI45
(dp807
sI50
(dp808
sI51
(dp809
sI52
(dp810
sI55
(dp811
sI56
(dp812
sI58
(dp813
sI59
(dp814
sI61
(dp815
sI62
(dp816
sI63
(dp817
sI64
(dp818
sI65
(dp819
sI66
(dp820
sI70
(dp821
sI72
(dp822
sI73
(dp823
sI75
(dp824
sI78
(dp825
sI79
(dp826
sI84
(dp827
sI86
(dp828
sI87
(dp829
sI88
(dp830
sI90
(dp831
ssg81
g82
sg83
g82
sg84
(dp832
I0
(dp833
I24
(dp834
sI45
(dp835
ssI1
(dp836
I40
(dp837
sI7
(dp838
sI78
(dp839
sI15
(dp840
ssI2
(dp841
I33
(dp842
sI12
(dp843
sI15
(dp844
ssI3
(dp845
I72
(dp846
sI14
(dp847
sI44
(dp848
sI5
(dp849
sI22
(dp850
ssI4
(dp851
I84
(dp852
ssI5
(dp853
I11
(dp854
sI18
(dp855
sI3
g849
ssI7
(dp856
I1
g838
sI40
(dp857
sI78
(dp858
sI50
(dp859
sI86
(dp860
sI59
(dp861
ssI9
(dp862
I66
(dp863
sI70
(dp864
sI73
(dp865
sI19
(dp866
sI62
(dp867
sI28
(dp868
sI29
(dp869
sI30
(dp870
ssI11
(dp871
I24
(dp872
sI44
(dp873
sI84
(dp874
sI5
g854
ssI12
(dp875
I72
(dp876
sI2
g843
sI58
(dp877
ssI14
(dp878
I3
g847
sI19
(dp879
ssI15
(dp880
I72
(dp881
sI1
g840
sI2
g844
ssI17
(dp882
I18
(dp883
ssI18
(dp884
I17
g883
sI5
g855
sI22
(dp885
ssI19
(dp886
I9
g866
sI42
(dp887
sI14
g879
sI79
(dp888
sI50
(dp889
sI73
(dp890
ssI20
(dp891
I40
(dp892
sI84
(dp893
sI35
(dp894
sI52
(dp895
ssI21
(dp896
I59
(dp897
ssI22
(dp898
I64
(dp899
sI32
(dp900
sI18
g885
sI3
g850
sI38
(dp901
ssI24
(dp902
I0
g834
sI11
g872
ssI25
(dp903
I35
(dp904
ssI28
(dp905
I40
(dp906
sI73
(dp907
sI29
(dp908
sI9
g868
ssI29
(dp909
I70
(dp910
sI73
(dp911
sI9
g869
sI28
g908
sI61
(dp912
sI62
(dp913
sI63
(dp914
ssI30
(dp915
I9
g870
ssI32
(dp916
I38
(dp917
sI22
g900
ssI33
(dp918
I88
(dp919
sI2
g842
sI59
(dp920
ssI35
(dp921
I75
(dp922
sI50
(dp923
sI84
(dp924
sI87
(dp925
sI25
g904
sI20
g894
sI52
(dp926
ssI38
(dp927
I32
g917
sI22
g901
ssI39
(dp928
I90
(dp929
sI45
(dp930
ssI40
(dp931
I1
g837
sI7
g857
sI75
(dp932
sI84
(dp933
sI20
g892
sI28
g906
ssI42
(dp934
I50
(dp935
sI19
g887
sI44
(dp936
sI79
(dp937
ssI44
(dp938
I11
g873
sI3
g848
sI42
g936
sI51
(dp939
sI70
(dp940
ssI45
(dp941
I0
g835
sI65
(dp942
sI39
g930
ssI50
(dp943
I35
g923
sI7
g859
sI42
g935
sI75
(dp944
sI19
g889
sI84
(dp945
sI86
(dp946
sI88
(dp947
ssI51
(dp948
I44
g939
ssI52
(dp949
I84
(dp950
sI35
g926
sI20
g895
sI79
(dp951
ssI55
(dp952
I79
(dp953
ssI56
(dp954
I84
(dp955
sI87
(dp956
ssI58
(dp957
I72
(dp958
sI59
(dp959
sI12
g877
sI78
(dp960
sI86
(dp961
ssI59
(dp962
I33
g920
sI58
g959
sI21
g897
sI78
(dp963
sI7
g861
ssI61
(dp964
I29
g912
sI63
(dp965
ssI62
(dp966
I73
(dp967
sI66
(dp968
sI29
g913
sI9
g867
ssI63
(dp969
I66
(dp970
sI29
g914
sI70
(dp971
sI61
g965
ssI64
(dp972
I22
g899
ssI65
(dp973
I72
(dp974
sI45
g942
ssI66
(dp975
I9
g863
sI62
g968
sI63
g970
ssI70
(dp976
I9
g864
sI44
g940
sI29
g910
sI63
g971
ssI72
(dp977
I65
g974
sI3
g846
sI75
(dp978
sI12
g876
sI78
(dp979
sI15
g881
sI86
(dp980
sI58
g958
ssI73
(dp981
I9
g865
sI19
g890
sI28
g907
sI29
g911
sI62
g967
ssI75
(dp982
I35
g922
sI72
g978
sI79
(dp983
sI40
g932
sI50
g944
sI86
(dp984
ssI78
(dp985
I72
g979
sI1
g839
sI58
g960
sI59
g963
sI7
g858
ssI79
(dp986
I42
g937
sI75
g983
sI19
g888
sI84
(dp987
sI86
(dp988
sI55
g953
sI52
g951
sI87
(dp989
ssI84
(dp990
I35
g924
sI4
g852
sI40
g933
sI11
g874
sI79
g987
sI50
g945
sI52
g950
sI87
(dp991
sI56
g955
sI20
g893
ssI86
(dp992
I7
g860
sI72
g980
sI75
g984
sI79
g988
sI50
g946
sI58
g961
ssI87
(dp993
I56
g956
sI35
g925
sI84
g991
sI79
g989
ssI88
(dp994
I33
g919
sI50
g947
ssI90
(dp995
I39
g929
sssg346
(dp996
sg348
g82
sg349
g832
sbag1
(g2
g3
Ntp997
Rp998
(dp999
g7
(dp1000
I1
(dp1001
sI3
(dp1002
sI7
(dp1003
sI9
(dp1004
sI11
(dp1005
sI14
(dp1006
sI16
(dp1007
sI19
(dp1008
sI21
(dp1009
sI22
(dp1010
sI24
(dp1011
sI25
(dp1012
sI28
(dp1013
sI29
(dp1014
sI32
(dp1015
sI35
(dp1016
sI42
(dp1017
sI44
(dp1018
sI45
(dp1019
sI50
(dp1020
sI52
(dp1021
sI56
(dp1022
sI62
(dp1023
sI63
(dp1024
sI65
(dp1025
sI68
(dp1026
sI70
(dp1027
sI73
(dp1028
sI75
(dp1029
sI78
(dp1030
sI84
(dp1031
sI85
(dp1032
sI86
(dp1033
sI87
(dp1034
ssg81
g82
sg83
g82
sg84
(dp1035
I1
(dp1036
I78
(dp1037
ssI3
(dp1038
I19
(dp1039
sI68
(dp1040
sI14
(dp1041
ssI7
(dp1042
I50
(dp1043
ssI9
(dp1044
I73
(dp1045
sI14
(dp1046
ssI11
(dp1047
I44
(dp1048
ssI14
(dp1049
I9
g1046
sI3
g1041
sI44
(dp1050
sI22
(dp1051
ssI16
(dp1052
I25
(dp1053
ssI19
(dp1054
I73
(dp1055
sI42
(dp1056
sI3
g1039
sI28
(dp1057
ssI21
(dp1058
I84
(dp1059
ssI22
(dp1060
I14
g1051
ssI24
(dp1061
I44
(dp1062
ssI25
(dp1063
I16
g1053
sI86
(dp1064
ssI28
(dp1065
I73
(dp1066
sI19
g1057
ssI29
(dp1067
I70
(dp1068
sI63
(dp1069
ssI32
(dp1070
I85
(dp1071
ssI35
(dp1072
I75
(dp1073
sI52
(dp1074
ssI42
(dp1075
I19
g1056
ssI44
(dp1076
I24
g1062
sI11
g1048
sI14
g1050
ssI45
(dp1077
I65
(dp1078
ssI50
(dp1079
I86
(dp1080
sI7
g1043
ssI52
(dp1081
I75
(dp1082
sI35
g1074
sI86
(dp1083
sI87
(dp1084
ssI56
(dp1085
I84
(dp1086
sI86
(dp1087
ssI62
(dp1088
I73
(dp1089
ssI63
(dp1090
I29
g1069
sI70
(dp1091
ssI65
(dp1092
I45
g1078
ssI68
(dp1093
I3
g1040
ssI70
(dp1094
I29
g1068
sI63
g1091
ssI73
(dp1095
I9
g1045
sI19
g1055
sI28
g1066
sI62
g1089
ssI75
(dp1096
I35
g1073
sI52
g1082
ssI78
(dp1097
I1
g1037
ssI84
(dp1098
I56
g1086
sI21
g1059
sI86
(dp1099
ssI85
(dp1100
I32
g1071
ssI86
(dp1101
I56
g1087
sI84
g1099
sI50
g1080
sI52
g1083
sI25
g1064
ssI87
(dp1102
I52
g1084
sssg346
(dp1103
sg348
g82
sg349
g1035
sbag1
(g2
g3
Ntp1104
Rp1105
(dp1106
g7
(dp1107
I0
(dp1108
sI4
(dp1109
sI5
(dp1110
sI6
(dp1111
sI7
(dp1112
sI8
(dp1113
sI9
(dp1114
sI11
(dp1115
sI12
(dp1116
sI14
(dp1117
sI16
(dp1118
sI17
(dp1119
sI18
(dp1120
sI19
(dp1121
sI21
(dp1122
sI22
(dp1123
sI24
(dp1124
sI25
(dp1125
sI26
(dp1126
sI27
(dp1127
sI28
(dp1128
sI29
(dp1129
sI32
(dp1130
sI34
(dp1131
sI35
(dp1132
sI36
(dp1133
sI37
(dp1134
sI38
(dp1135
sI39
(dp1136
sI40
(dp1137
sI42
(dp1138
sI45
(dp1139
sI47
(dp1140
sI48
(dp1141
sI50
(dp1142
sI51
(dp1143
sI52
(dp1144
sI53
(dp1145
sI54
(dp1146
sI55
(dp1147
sI56
(dp1148
sI58
(dp1149
sI59
(dp1150
sI60
(dp1151
sI61
(dp1152
sI62
(dp1153
sI63
(dp1154
sI64
(dp1155
sI65
(dp1156
sI66
(dp1157
sI67
(dp1158
sI68
(dp1159
sI69
(dp1160
sI70
(dp1161
sI71
(dp1162
sI72
(dp1163
sI73
(dp1164
sI75
(dp1165
sI76
(dp1166
sI77
(dp1167
sI78
(dp1168
sI79
(dp1169
sI80
(dp1170
sI81
(dp1171
sI84
(dp1172
sI85
(dp1173
sI87
(dp1174
sI88
(dp1175
sI90
(dp1176
sI91
(dp1177
ssg81
g82
sg83
g82
sg84
(dp1178
I0
(dp1179
I51
(dp1180
sI45
(dp1181
sI14
(dp1182
ssI4
(dp1183
I48
(dp1184
sI36
(dp1185
sI50
(dp1186
sI52
(dp1187
sI55
(dp1188
ssI5
(dp1189
I34
(dp1190
sI35
(dp1191
sI37
(dp1192
sI72
(dp1193
sI75
(dp1194
sI11
(dp1195
sI18
(dp1196
sI51
(dp1197
sI22
(dp1198
sI54
(dp1199
ssI6
(dp1200
I58
(dp1201
sI7
(dp1202
ssI7
(dp1203
I59
(dp1204
sI6
g1202
sI76
(dp1205
sI78
(dp1206
sI21
(dp1207
sI88
(dp1208
sI25
(dp1209
sI58
(dp1210
sI27
(dp1211
ssI8
(dp1212
I32
(dp1213
sI34
(dp1214
sI39
(dp1215
sI14
(dp1216
sI79
(dp1217
sI17
(dp1218
sI26
(dp1219
sI51
(dp1220
sI54
(dp1221
sI58
(dp1222
sI90
(dp1223
ssI9
(dp1224
I73
(dp1225
sI69
(dp1226
sI62
(dp1227
sI29
(dp1228
ssI11
(dp1229
I24
(dp1230
sI5
g1195
ssI12
(dp1231
I16
(dp1232
sI32
(dp1233
sI60
(dp1234
ssI14
(dp1235
I0
g1182
sI64
(dp1236
sI37
(dp1237
sI39
(dp1238
sI8
g1216
sI77
(dp1239
sI48
(dp1240
sI18
(dp1241
sI51
(dp1242
sI24
(dp1243
sI58
(dp1244
sI90
(dp1245
ssI16
(dp1246
I76
(dp1247
sI12
g1232
sI45
(dp1248
sI78
(dp1249
sI25
(dp1250
ssI17
(dp1251
I8
g1218
sI18
(dp1252
sI51
(dp1253
sI68
(dp1254
ssI18
(dp1255
I5
g1196
sI72
(dp1256
sI14
g1241
sI47
(dp1257
sI17
g1252
sI22
(dp1258
sI37
(dp1259
ssI19
(dp1260
I59
(dp1261
sI75
(dp1262
sI76
(dp1263
sI78
(dp1264
sI50
(dp1265
sI51
(dp1266
sI58
(dp1267
sI27
(dp1268
ssI21
(dp1269
I59
(dp1270
sI69
(dp1271
sI7
g1207
sI76
(dp1272
sI78
(dp1273
sI84
(dp1274
sI56
(dp1275
sI27
(dp1276
sI28
(dp1277
sI61
(dp1278
sI63
(dp1279
ssI22
(dp1280
I34
(dp1281
sI5
g1198
sI72
(dp1282
sI18
g1258
sI85
(dp1283
sI26
(dp1284
sI91
(dp1285
sI37
(dp1286
ssI24
(dp1287
I37
(dp1288
sI11
g1230
sI45
(dp1289
sI14
g1243
sI48
(dp1290
sI59
(dp1291
ssI25
(dp1292
I7
g1209
sI39
(dp1293
sI79
(dp1294
sI16
g1250
sI88
(dp1295
sI58
(dp1296
ssI26
(dp1297
I65
(dp1298
sI37
(dp1299
sI71
(dp1300
sI72
(dp1301
sI8
g1219
sI22
g1284
ssI27
(dp1302
I65
(dp1303
sI35
(dp1304
sI7
g1211
sI72
(dp1305
sI75
(dp1306
sI76
(dp1307
sI81
(dp1308
sI50
(dp1309
sI19
g1268
sI84
(dp1310
sI21
g1276
sI56
(dp1311
sI52
(dp1312
sI60
(dp1313
ssI28
(dp1314
I73
(dp1315
sI66
(dp1316
sI21
g1277
sI62
(dp1317
sI53
(dp1318
ssI29
(dp1319
I9
g1228
sI63
(dp1320
sI69
(dp1321
sI70
(dp1322
sI53
(dp1323
ssI32
(dp1324
I8
g1213
sI12
g1233
ssI34
(dp1325
I8
g1214
sI45
(dp1326
sI37
(dp1327
sI22
g1281
sI5
g1190
ssI35
(dp1328
I5
g1191
sI38
(dp1329
sI75
(dp1330
sI45
(dp1331
sI50
(dp1332
sI27
g1304
sI37
(dp1333
ssI36
(dp1334
I50
(dp1335
sI55
(dp1336
sI4
g1185
sI79
(dp1337
ssI37
(dp1338
I34
g1327
sI35
g1333
sI5
g1192
sI72
(dp1339
sI14
g1237
sI18
g1259
sI22
g1286
sI24
g1288
sI26
g1299
sI90
(dp1340
ssI38
(dp1341
I51
(dp1342
sI35
g1329
ssI39
(dp1343
I8
g1215
sI25
g1293
sI51
(dp1344
sI14
g1238
ssI40
(dp1345
I84
(dp1346
sI78
(dp1347
ssI42
(dp1348
I50
(dp1349
sI75
(dp1350
ssI45
(dp1351
I0
g1181
sI65
(dp1352
sI34
g1326
sI35
g1331
sI72
(dp1353
sI16
g1248
sI24
g1289
sI58
(dp1354
sI90
(dp1355
ssI47
(dp1356
I18
g1257
ssI48
(dp1357
I24
g1290
sI4
g1184
sI14
g1240
ssI50
(dp1358
I35
g1332
sI36
g1335
sI42
g1349
sI75
(dp1359
sI19
g1265
sI52
(dp1360
sI55
(dp1361
sI4
g1186
sI27
g1309
ssI51
(dp1362
I0
g1180
sI65
(dp1363
sI68
(dp1364
sI5
g1197
sI38
g1342
sI39
g1344
sI8
g1220
sI14
g1242
sI17
g1253
sI19
g1266
sI72
(dp1365
sI90
(dp1366
ssI52
(dp1367
I75
(dp1368
sI27
g1312
sI4
g1187
sI50
g1360
sI87
(dp1369
ssI53
(dp1370
I66
(dp1371
sI28
g1318
sI29
g1323
sI69
(dp1372
sI63
(dp1373
ssI54
(dp1374
I8
g1221
sI5
g1199
sI71
(dp1375
ssI55
(dp1376
I36
g1336
sI50
g1361
sI4
g1188
sI79
(dp1377
ssI56
(dp1378
I27
g1311
sI60
(dp1379
sI21
g1275
ssI58
(dp1380
I6
g1201
sI7
g1210
sI8
g1222
sI45
g1354
sI14
g1244
sI72
(dp1381
sI19
g1267
sI85
(dp1382
sI25
g1296
sI59
(dp1383
ssI59
(dp1384
I7
g1204
sI76
(dp1385
sI78
(dp1386
sI19
g1261
sI21
g1270
sI24
g1291
sI58
g1383
ssI60
(dp1387
I88
(dp1388
sI81
(dp1389
sI27
g1313
sI12
g1234
sI56
g1379
ssI61
(dp1390
I21
g1278
sI71
(dp1391
ssI62
(dp1392
I9
g1227
sI28
g1317
sI69
(dp1393
sI73
(dp1394
ssI63
(dp1395
I21
g1279
sI53
g1373
sI29
g1320
ssI64
(dp1396
I77
(dp1397
sI14
g1236
ssI65
(dp1398
I72
(dp1399
sI51
g1363
sI26
g1298
sI27
g1303
sI45
g1352
ssI66
(dp1400
I28
g1316
sI69
(dp1401
sI70
(dp1402
sI53
g1371
ssI67
(dp1403
I78
(dp1404
ssI68
(dp1405
I17
g1254
sI51
g1364
ssI69
(dp1406
I66
g1401
sI70
(dp1407
sI73
(dp1408
sI21
g1271
sI9
g1226
sI29
g1321
sI62
g1393
sI53
g1372
ssI70
(dp1409
I73
(dp1410
sI66
g1402
sI29
g1322
sI69
g1407
ssI71
(dp1411
I26
g1300
sI61
g1391
sI54
g1375
ssI72
(dp1412
I65
g1399
sI5
g1193
sI45
g1353
sI18
g1256
sI51
g1365
sI22
g1282
sI26
g1301
sI27
g1305
sI58
g1381
sI37
g1339
ssI73
(dp1413
I9
g1225
sI28
g1315
sI62
g1394
sI70
g1410
sI69
g1408
ssI75
(dp1414
I35
g1330
sI5
g1194
sI42
g1350
sI79
(dp1415
sI50
g1359
sI19
g1262
sI52
g1368
sI27
g1306
ssI76
(dp1416
I27
g1307
sI7
g1205
sI78
(dp1417
sI16
g1247
sI19
g1263
sI21
g1272
sI88
(dp1418
sI59
g1385
ssI77
(dp1419
I64
g1397
sI14
g1239
ssI78
(dp1420
I67
g1404
sI7
g1206
sI40
g1347
sI76
g1417
sI16
g1249
sI19
g1264
sI21
g1273
sI59
g1386
ssI79
(dp1421
I8
g1217
sI25
g1294
sI75
g1415
sI36
g1337
sI55
g1377
ssI80
(dp1422
I85
(dp1423
ssI81
(dp1424
I88
(dp1425
sI27
g1308
sI60
g1389
ssI84
(dp1426
I40
g1346
sI27
g1310
sI21
g1274
ssI85
(dp1427
I80
g1423
sI58
g1382
sI91
(dp1428
sI22
g1283
ssI87
(dp1429
I52
g1369
ssI88
(dp1430
I60
g1388
sI76
g1418
sI25
g1295
sI81
g1425
sI7
g1208
ssI90
(dp1431
I8
g1223
sI51
g1366
sI45
g1355
sI14
g1245
sI37
g1340
ssI91
(dp1432
I85
g1428
sI22
g1285
sssg346
(dp1433
sg348
g82
sg349
g1178
sbag1
(g2
g3
Ntp1434
Rp1435
(dp1436
g7
(dp1437
I0
(dp1438
sI67
(dp1439
sI14
(dp1440
sI84
(dp1441
sI87
(dp1442
sI25
(dp1443
ssg81
g82
sg83
g82
sg84
(dp1444
I0
(dp1445
I14
(dp1446
ssI67
(dp1447
I84
(dp1448
ssI14
(dp1449
I0
g1446
ssI84
(dp1450
I67
g1448
ssI87
(dp1451
I25
(dp1452
ssI25
(dp1453
I87
g1452
sssg346
(dp1454
sg348
g82
sg349
g1444
sbag1
(g2
g3
Ntp1455
Rp1456
(dp1457
g7
(dp1458
I0
(dp1459
sI3
(dp1460
sI4
(dp1461
sI5
(dp1462
sI6
(dp1463
sI7
(dp1464
sI9
(dp1465
sI12
(dp1466
sI14
(dp1467
sI17
(dp1468
sI18
(dp1469
sI21
(dp1470
sI24
(dp1471
sI26
(dp1472
sI28
(dp1473
sI30
(dp1474
sI32
(dp1475
sI34
(dp1476
sI35
(dp1477
sI36
(dp1478
sI37
(dp1479
sI38
(dp1480
sI39
(dp1481
sI40
(dp1482
sI42
(dp1483
sI43
(dp1484
sI45
(dp1485
sI46
(dp1486
sI47
(dp1487
sI48
(dp1488
sI49
(dp1489
sI51
(dp1490
sI52
(dp1491
sI53
(dp1492
sI55
(dp1493
sI58
(dp1494
sI60
(dp1495
sI61
(dp1496
sI62
(dp1497
sI63
(dp1498
sI64
(dp1499
sI65
(dp1500
sI66
(dp1501
sI67
(dp1502
sI68
(dp1503
sI69
(dp1504
sI70
(dp1505
sI71
(dp1506
sI72
(dp1507
sI73
(dp1508
sI75
(dp1509
sI76
(dp1510
sI77
(dp1511
sI78
(dp1512
sI80
(dp1513
sI83
(dp1514
sI84
(dp1515
sI85
(dp1516
sI86
(dp1517
sI87
(dp1518
sI88
(dp1519
sI91
(dp1520
ssg81
g82
sg83
g82
sg84
(dp1521
I0
(dp1522
I24
(dp1523
sI48
(dp1524
ssI3
(dp1525
I65
(dp1526
sI14
(dp1527
ssI4
(dp1528
I86
(dp1529
ssI5
(dp1530
I72
(dp1531
sI39
(dp1532
sI47
(dp1533
ssI6
(dp1534
I40
(dp1535
sI26
(dp1536
sI12
(dp1537
ssI7
(dp1538
I88
(dp1539
sI76
(dp1540
sI12
(dp1541
sI46
(dp1542
sI78
(dp1543
ssI9
(dp1544
I66
(dp1545
sI69
(dp1546
sI39
(dp1547
sI73
(dp1548
sI46
(dp1549
sI51
(dp1550
sI26
(dp1551
sI28
(dp1552
sI62
(dp1553
sI63
(dp1554
ssI12
(dp1555
I64
(dp1556
sI6
g1537
sI7
g1541
sI45
(dp1557
sI46
(dp1558
sI84
(dp1559
sI58
(dp1560
ssI14
(dp1561
I24
(dp1562
sI32
(dp1563
sI58
(dp1564
sI3
g1527
sI47
(dp1565
ssI17
(dp1566
I34
(dp1567
sI51
(dp1568
sI68
(dp1569
sI18
(dp1570
sI46
(dp1571
ssI18
(dp1572
I17
g1570
sI34
(dp1573
sI68
(dp1574
ssI21
(dp1575
I40
(dp1576
sI84
(dp1577
ssI24
(dp1578
I48
(dp1579
sI0
g1523
sI58
(dp1580
sI14
g1562
sI32
(dp1581
ssI26
(dp1582
I9
g1551
sI6
g1536
ssI28
(dp1583
I66
(dp1584
sI69
(dp1585
sI70
(dp1586
sI73
(dp1587
sI43
(dp1588
sI76
(dp1589
sI84
(dp1590
sI53
(dp1591
sI9
g1552
sI62
(dp1592
sI30
(dp1593
ssI30
(dp1594
I66
(dp1595
sI28
g1593
sI62
(dp1596
ssI32
(dp1597
I38
(dp1598
sI71
(dp1599
sI14
g1563
sI80
(dp1600
sI85
(dp1601
sI24
g1581
sI91
(dp1602
ssI34
(dp1603
I72
(dp1604
sI17
g1567
sI18
g1573
sI68
(dp1605
sI58
(dp1606
ssI35
(dp1607
I75
(dp1608
sI36
(dp1609
ssI36
(dp1610
I35
g1609
sI75
(dp1611
ssI37
(dp1612
I65
(dp1613
sI58
(dp1614
sI77
(dp1615
ssI38
(dp1616
I32
g1598
ssI39
(dp1617
I9
g1547
sI51
(dp1618
sI5
g1532
ssI40
(dp1619
I88
(dp1620
sI21
g1576
sI6
g1535
ssI42
(dp1621
I43
(dp1622
sI51
(dp1623
sI86
(dp1624
ssI43
(dp1625
I42
g1622
sI28
g1588
ssI45
(dp1626
I72
(dp1627
sI58
(dp1628
sI12
g1557
ssI46
(dp1629
I12
g1558
sI9
g1549
sI60
(dp1630
sI17
g1571
sI7
g1542
ssI47
(dp1631
I58
(dp1632
sI5
g1533
sI14
g1565
ssI48
(dp1633
I24
g1579
sI0
g1524
ssI49
(dp1634
I86
(dp1635
sI55
(dp1636
ssI51
(dp1637
I17
g1568
sI42
g1623
sI68
(dp1638
sI9
g1550
sI39
g1618
ssI52
(dp1639
I87
(dp1640
ssI53
(dp1641
I28
g1591
sI62
(dp1642
sI70
(dp1643
sI63
(dp1644
ssI55
(dp1645
I49
g1636
sI75
(dp1646
sI84
(dp1647
sI86
(dp1648
sI87
(dp1649
ssI58
(dp1650
I65
(dp1651
sI34
g1606
sI37
g1614
sI12
g1560
sI45
g1628
sI14
g1564
sI47
g1632
sI24
g1580
ssI60
(dp1652
I46
g1630
ssI61
(dp1653
I62
(dp1654
ssI62
(dp1655
I9
g1553
sI53
g1642
sI73
(dp1656
sI28
g1592
sI61
g1654
sI30
g1596
ssI63
(dp1657
I9
g1554
sI53
g1644
sI70
(dp1658
ssI64
(dp1659
I12
g1556
sI77
(dp1660
ssI65
(dp1661
I58
g1651
sI3
g1526
sI37
g1613
ssI66
(dp1662
I9
g1545
sI28
g1584
sI30
g1595
ssI67
(dp1663
I84
(dp1664
sI76
(dp1665
ssI68
(dp1666
I17
g1569
sI34
g1605
sI51
g1638
sI18
g1574
ssI69
(dp1667
I9
g1546
sI28
g1585
ssI70
(dp1668
I28
g1586
sI53
g1643
sI63
g1658
ssI71
(dp1669
I32
g1599
sI83
(dp1670
ssI72
(dp1671
I34
g1604
sI5
g1531
sI45
g1627
ssI73
(dp1672
I9
g1548
sI28
g1587
sI62
g1656
ssI75
(dp1673
I35
g1608
sI36
g1611
sI86
(dp1674
sI55
g1646
ssI76
(dp1675
I84
(dp1676
sI67
g1665
sI28
g1589
sI7
g1540
ssI77
(dp1677
I64
g1660
sI37
g1615
ssI78
(dp1678
I7
g1543
ssI80
(dp1679
I32
g1600
ssI83
(dp1680
I71
g1670
ssI84
(dp1681
I67
g1664
sI12
g1559
sI76
g1676
sI21
g1577
sI55
g1647
sI28
g1590
ssI85
(dp1682
I32
g1601
ssI86
(dp1683
I49
g1635
sI42
g1624
sI75
g1674
sI4
g1529
sI55
g1648
ssI87
(dp1684
I52
g1640
sI55
g1649
ssI88
(dp1685
I40
g1620
sI7
g1539
ssI91
(dp1686
I32
g1602
sssg346
(dp1687
sg348
g82
sg349
g1521
sbag1
(g2
g3
Ntp1688
Rp1689
(dp1690
g7
(dp1691
I1
(dp1692
sI3
(dp1693
sI4
(dp1694
sI5
(dp1695
sI6
(dp1696
sI7
(dp1697
sI8
(dp1698
sI9
(dp1699
sI11
(dp1700
sI12
(dp1701
sI14
(dp1702
sI15
(dp1703
sI16
(dp1704
sI17
(dp1705
sI18
(dp1706
sI21
(dp1707
sI22
(dp1708
sI23
(dp1709
sI24
(dp1710
sI25
(dp1711
sI26
(dp1712
sI27
(dp1713
sI28
(dp1714
sI30
(dp1715
sI32
(dp1716
sI33
(dp1717
sI34
(dp1718
sI35
(dp1719
sI37
(dp1720
sI38
(dp1721
sI39
(dp1722
sI40
(dp1723
sI43
(dp1724
sI44
(dp1725
sI45
(dp1726
sI46
(dp1727
sI48
(dp1728
sI49
(dp1729
sI50
(dp1730
sI51
(dp1731
sI52
(dp1732
sI53
(dp1733
sI55
(dp1734
sI56
(dp1735
sI58
(dp1736
sI60
(dp1737
sI61
(dp1738
sI62
(dp1739
sI63
(dp1740
sI64
(dp1741
sI65
(dp1742
sI66
(dp1743
sI68
(dp1744
sI69
(dp1745
sI70
(dp1746
sI71
(dp1747
sI72
(dp1748
sI73
(dp1749
sI74
(dp1750
sI75
(dp1751
sI76
(dp1752
sI77
(dp1753
sI81
(dp1754
sI84
(dp1755
sI85
(dp1756
sI86
(dp1757
sI88
(dp1758
sI90
(dp1759
ssg81
g82
sg83
g82
sg84
(dp1760
I1
(dp1761
I33
(dp1762
sI7
(dp1763
ssI3
(dp1764
I18
(dp1765
sI85
(dp1766
sI14
(dp1767
sI45
(dp1768
ssI4
(dp1769
I50
(dp1770
sI86
(dp1771
ssI5
(dp1772
I72
(dp1773
sI18
(dp1774
ssI6
(dp1775
I88
(dp1776
sI40
(dp1777
ssI7
(dp1778
I16
(dp1779
sI1
g1763
sI58
(dp1780
sI88
(dp1781
sI25
(dp1782
ssI8
(dp1783
I26
(dp1784
ssI9
(dp1785
I66
(dp1786
sI72
(dp1787
sI73
(dp1788
sI44
(dp1789
sI28
(dp1790
sI23
(dp1791
sI60
(dp1792
sI61
(dp1793
sI62
(dp1794
ssI11
(dp1795
I69
(dp1796
sI72
(dp1797
sI44
(dp1798
sI77
(dp1799
sI51
(dp1800
sI23
(dp1801
sI24
(dp1802
sI58
(dp1803
ssI12
(dp1804
I72
(dp1805
sI44
(dp1806
sI15
(dp1807
sI88
(dp1808
sI56
(dp1809
sI58
(dp1810
sI27
(dp1811
ssI14
(dp1812
I48
(dp1813
sI24
(dp1814
sI3
g1767
sI37
(dp1815
ssI15
(dp1816
I33
(dp1817
sI12
g1807
sI60
(dp1818
ssI16
(dp1819
I88
(dp1820
sI25
(dp1821
sI76
(dp1822
sI7
g1779
ssI17
(dp1823
I34
(dp1824
sI68
(dp1825
sI18
(dp1826
ssI18
(dp1827
I17
g1826
sI3
g1765
sI37
(dp1828
sI5
g1774
ssI21
(dp1829
I76
(dp1830
sI60
(dp1831
sI61
(dp1832
sI30
(dp1833
sI69
(dp1834
ssI22
(dp1835
I48
(dp1836
sI64
(dp1837
sI85
(dp1838
sI71
(dp1839
ssI23
(dp1840
I69
(dp1841
sI9
g1791
sI11
g1801
sI53
(dp1842
sI61
(dp1843
sI30
(dp1844
ssI24
(dp1845
I48
(dp1846
sI11
g1802
sI45
(dp1847
sI14
g1814
ssI25
(dp1848
I16
g1821
sI7
g1782
sI86
(dp1849
sI55
(dp1850
ssI26
(dp1851
I32
(dp1852
sI8
g1784
sI37
(dp1853
ssI27
(dp1854
I64
(dp1855
sI68
(dp1856
sI12
g1811
sI77
(dp1857
sI48
(dp1858
sI81
(dp1859
sI51
(dp1860
ssI28
(dp1861
I69
(dp1862
sI70
(dp1863
sI9
g1790
sI45
(dp1864
sI53
(dp1865
sI73
(dp1866
sI62
(dp1867
ssI30
(dp1868
I66
(dp1869
sI44
(dp1870
sI21
g1833
sI23
g1844
ssI32
(dp1871
I26
g1852
ssI33
(dp1872
I1
g1762
sI15
g1817
ssI34
(dp1873
I17
g1824
sI44
(dp1874
ssI35
(dp1875
I84
(dp1876
sI50
(dp1877
sI75
(dp1878
sI52
(dp1879
sI74
(dp1880
ssI37
(dp1881
I72
(dp1882
sI58
(dp1883
sI26
g1853
sI18
g1828
sI14
g1815
ssI38
(dp1884
I90
(dp1885
sI45
(dp1886
sI85
(dp1887
ssI39
(dp1888
I72
(dp1889
sI65
(dp1890
ssI40
(dp1891
I6
g1777
ssI43
(dp1892
I58
(dp1893
ssI44
(dp1894
I34
g1874
sI9
g1789
sI11
g1798
sI12
g1806
sI45
(dp1895
sI51
(dp1896
sI52
(dp1897
sI53
(dp1898
sI56
(dp1899
sI58
(dp1900
sI30
g1870
ssI45
(dp1901
I65
(dp1902
sI3
g1768
sI38
g1886
sI70
(dp1903
sI72
(dp1904
sI44
g1895
sI24
g1847
sI58
(dp1905
sI28
g1864
ssI46
(dp1906
I49
(dp1907
sI50
(dp1908
sI76
(dp1909
ssI48
(dp1910
I64
(dp1911
sI24
g1846
sI27
g1858
sI14
g1813
sI22
g1836
ssI49
(dp1912
I74
(dp1913
sI46
g1907
sI50
(dp1914
sI84
(dp1915
sI86
(dp1916
sI55
(dp1917
sI52
(dp1918
ssI50
(dp1919
I35
g1877
sI4
g1770
sI75
(dp1920
sI46
g1908
sI49
g1914
sI52
(dp1921
sI86
(dp1922
sI84
(dp1923
ssI51
(dp1924
I11
g1800
sI27
g1860
sI44
g1896
ssI52
(dp1925
I35
g1879
sI44
g1897
sI49
g1918
sI50
g1921
sI84
(dp1926
sI86
(dp1927
sI55
(dp1928
ssI53
(dp1929
I44
g1898
sI63
(dp1930
sI28
g1865
sI70
(dp1931
sI23
g1842
ssI55
(dp1932
I25
g1850
sI74
(dp1933
sI52
g1928
sI86
(dp1934
sI49
g1917
ssI56
(dp1935
I44
g1899
sI58
(dp1936
sI60
(dp1937
sI12
g1809
sI65
(dp1938
ssI58
(dp1939
I65
(dp1940
sI11
g1803
sI37
g1883
sI7
g1780
sI12
g1810
sI43
g1893
sI44
g1900
sI45
g1905
sI85
(dp1941
sI56
g1936
sI90
(dp1942
ssI60
(dp1943
I56
g1937
sI81
(dp1944
sI15
g1818
sI21
g1831
sI9
g1792
ssI61
(dp1945
I9
g1793
sI21
g1832
sI69
(dp1946
sI23
g1843
ssI62
(dp1947
I9
g1794
sI28
g1867
sI73
(dp1948
ssI63
(dp1949
I53
g1930
ssI64
(dp1950
I48
g1911
sI27
g1855
sI77
(dp1951
sI22
g1837
ssI65
(dp1952
I56
g1938
sI72
(dp1953
sI58
g1940
sI45
g1902
sI39
g1890
ssI66
(dp1954
I9
g1786
sI30
g1869
ssI68
(dp1955
I17
g1825
sI27
g1856
ssI69
(dp1956
I73
(dp1957
sI11
g1796
sI21
g1834
sI23
g1841
sI28
g1862
sI61
g1946
ssI70
(dp1958
I28
g1863
sI53
g1931
sI45
g1903
ssI71
(dp1959
I22
g1839
ssI72
(dp1960
I65
g1953
sI5
g1773
sI39
g1889
sI9
g1787
sI11
g1797
sI12
g1805
sI45
g1904
sI90
(dp1961
sI37
g1882
ssI73
(dp1962
I9
g1788
sI28
g1866
sI69
g1957
sI62
g1948
ssI74
(dp1963
I49
g1913
sI35
g1880
sI86
(dp1964
sI55
g1933
ssI75
(dp1965
I50
g1920
sI35
g1878
ssI76
(dp1966
I88
(dp1967
sI16
g1822
sI21
g1830
sI46
g1909
ssI77
(dp1968
I64
g1951
sI27
g1857
sI11
g1799
ssI81
(dp1969
I27
g1859
sI60
g1944
ssI84
(dp1970
I49
g1915
sI50
g1923
sI35
g1876
sI52
g1926
ssI85
(dp1971
I38
g1887
sI90
(dp1972
sI3
g1766
sI58
g1941
sI22
g1838
ssI86
(dp1973
I4
g1771
sI74
g1964
sI49
g1916
sI50
g1922
sI52
g1927
sI55
g1934
sI25
g1849
ssI88
(dp1974
I16
g1820
sI12
g1808
sI76
g1967
sI6
g1776
sI7
g1781
ssI90
(dp1975
I72
g1961
sI58
g1942
sI85
g1972
sI38
g1885
sssg346
(dp1976
sg348
g82
sg349
g1760
sbag1
(g2
g3
Ntp1977
Rp1978
(dp1979
g7
(dp1980
I0
(dp1981
sI1
(dp1982
sI2
(dp1983
sI3
(dp1984
sI4
(dp1985
sI6
(dp1986
sI7
(dp1987
sI8
(dp1988
sI9
(dp1989
sI11
(dp1990
sI12
(dp1991
sI14
(dp1992
sI15
(dp1993
sI16
(dp1994
sI17
(dp1995
sI18
(dp1996
sI22
(dp1997
sI23
(dp1998
sI24
(dp1999
sI25
(dp2000
sI26
(dp2001
sI27
(dp2002
sI28
(dp2003
sI29
(dp2004
sI30
(dp2005
sI33
(dp2006
sI35
(dp2007
sI37
(dp2008
sI38
(dp2009
sI39
(dp2010
sI40
(dp2011
sI42
(dp2012
sI43
(dp2013
sI44
(dp2014
sI48
(dp2015
sI49
(dp2016
sI50
(dp2017
sI51
(dp2018
sI52
(dp2019
sI53
(dp2020
sI55
(dp2021
sI56
(dp2022
sI58
(dp2023
sI59
(dp2024
sI60
(dp2025
sI61
(dp2026
sI62
(dp2027
sI63
(dp2028
sI64
(dp2029
sI65
(dp2030
sI66
(dp2031
sI67
(dp2032
sI68
(dp2033
sI69
(dp2034
sI70
(dp2035
sI71
(dp2036
sI72
(dp2037
sI73
(dp2038
sI75
(dp2039
sI76
(dp2040
sI77
(dp2041
sI79
(dp2042
sI80
(dp2043
sI82
(dp2044
sI84
(dp2045
sI86
(dp2046
sI88
(dp2047
sI89
(dp2048
sI90
(dp2049
ssg81
g82
sg83
g82
sg84
(dp2050
I0
(dp2051
I24
(dp2052
sI48
(dp2053
sI14
(dp2054
ssI1
(dp2055
I59
(dp2056
sI6
(dp2057
sI7
(dp2058
sI40
(dp2059
sI16
(dp2060
sI88
(dp2061
sI27
(dp2062
ssI2
(dp2063
I84
(dp2064
ssI3
(dp2065
I68
(dp2066
sI37
(dp2067
sI14
(dp2068
sI80
(dp2069
sI51
(dp2070
sI22
(dp2071
sI23
(dp2072
sI58
(dp2073
ssI4
(dp2074
I50
(dp2075
sI86
(dp2076
sI79
(dp2077
ssI6
(dp2078
I40
(dp2079
sI1
g2057
sI27
(dp2080
sI60
(dp2081
sI7
(dp2082
ssI7
(dp2083
I1
g2058
sI6
g2082
sI16
(dp2084
sI84
(dp2085
sI88
(dp2086
sI25
(dp2087
sI27
(dp2088
ssI8
(dp2089
I16
(dp2090
sI26
(dp2091
sI60
(dp2092
sI90
(dp2093
sI30
(dp2094
ssI9
(dp2095
I66
(dp2096
sI69
(dp2097
sI73
(dp2098
sI43
(dp2099
sI77
(dp2100
sI80
(dp2101
sI62
(dp2102
sI23
(dp2103
sI28
(dp2104
sI29
(dp2105
sI30
(dp2106
sI53
(dp2107
ssI11
(dp2108
I48
(dp2109
sI24
(dp2110
sI84
(dp2111
ssI12
(dp2112
I49
(dp2113
ssI14
(dp2114
I0
g2054
sI3
g2068
sI37
(dp2115
sI71
(dp2116
sI48
(dp2117
sI51
(dp2118
ssI15
(dp2119
I27
(dp2120
sI16
(dp2121
sI67
(dp2122
sI60
(dp2123
ssI16
(dp2124
I1
g2060
sI7
g2084
sI8
g2090
sI15
g2121
sI84
(dp2125
sI88
(dp2126
sI25
(dp2127
sI59
(dp2128
sI61
(dp2129
ssI17
(dp2130
I18
(dp2131
sI68
(dp2132
ssI18
(dp2133
I17
g2131
sI68
(dp2134
ssI22
(dp2135
I72
(dp2136
sI80
(dp2137
sI3
g2071
sI37
(dp2138
sI38
(dp2139
ssI23
(dp2140
I3
g2072
sI69
(dp2141
sI73
(dp2142
sI49
(dp2143
sI53
(dp2144
sI9
g2103
sI29
(dp2145
sI30
(dp2146
ssI24
(dp2147
I0
g2052
sI48
(dp2148
sI11
g2110
sI84
(dp2149
ssI25
(dp2150
I16
g2127
sI49
(dp2151
sI84
(dp2152
sI86
(dp2153
sI7
g2087
ssI26
(dp2154
I8
g2091
ssI27
(dp2155
I33
(dp2156
sI6
g2080
sI1
g2062
sI7
g2088
sI15
g2120
sI84
(dp2157
sI88
(dp2158
sI60
(dp2159
ssI28
(dp2160
I66
(dp2161
sI69
(dp2162
sI73
(dp2163
sI53
(dp2164
sI9
g2104
sI29
(dp2165
sI30
(dp2166
ssI29
(dp2167
I71
(dp2168
sI9
g2105
sI23
g2145
sI53
(dp2169
sI73
(dp2170
sI28
g2165
sI30
(dp2171
sI63
(dp2172
ssI30
(dp2173
I66
(dp2174
sI8
g2094
sI9
g2106
sI53
(dp2175
sI23
g2146
sI28
g2166
sI29
g2171
sI62
(dp2176
ssI33
(dp2177
I27
g2156
sI84
(dp2178
ssI35
(dp2179
I50
(dp2180
sI52
(dp2181
sI86
(dp2182
ssI37
(dp2183
I3
g2067
sI77
(dp2184
sI14
g2115
sI80
(dp2185
sI50
(dp2186
sI22
g2138
sI58
(dp2187
sI90
(dp2188
ssI38
(dp2189
I22
g2139
sI86
(dp2190
ssI39
(dp2191
I51
(dp2192
ssI40
(dp2193
I56
(dp2194
sI1
g2059
sI6
g2079
ssI42
(dp2195
I51
(dp2196
sI76
(dp2197
ssI43
(dp2198
I9
g2099
ssI44
(dp2199
I65
(dp2200
sI51
(dp2201
sI77
(dp2202
ssI48
(dp2203
I0
g2053
sI24
g2148
sI11
g2109
sI14
g2117
ssI49
(dp2204
I67
(dp2205
sI23
g2143
sI12
g2113
sI52
(dp2206
sI86
(dp2207
sI55
(dp2208
sI25
g2151
ssI50
(dp2209
I35
g2180
sI4
g2075
sI37
g2186
sI75
(dp2210
sI80
(dp2211
sI84
(dp2212
sI86
(dp2213
ssI51
(dp2214
I65
(dp2215
sI3
g2070
sI39
g2192
sI42
g2196
sI44
g2201
sI14
g2118
sI58
(dp2216
ssI52
(dp2217
I35
g2181
sI75
(dp2218
sI79
(dp2219
sI49
g2206
sI84
(dp2220
sI55
(dp2221
ssI53
(dp2222
I66
(dp2223
sI70
(dp2224
sI73
(dp2225
sI77
(dp2226
sI29
g2169
sI9
g2107
sI62
(dp2227
sI23
g2144
sI28
g2164
sI61
(dp2228
sI30
g2175
ssI55
(dp2229
I49
g2208
sI52
g2221
sI86
(dp2230
sI79
(dp2231
ssI56
(dp2232
I40
g2194
sI84
(dp2233
ssI58
(dp2234
I3
g2073
sI65
(dp2235
sI51
g2216
sI37
g2187
ssI59
(dp2236
I16
g2128
sI1
g2056
sI76
(dp2237
ssI60
(dp2238
I8
g2092
sI89
(dp2239
sI27
g2159
sI6
g2081
sI15
g2123
ssI61
(dp2240
I16
g2129
sI53
g2228
ssI62
(dp2241
I9
g2102
sI53
g2227
sI30
g2176
sI73
(dp2242
ssI63
(dp2243
I29
g2172
ssI64
(dp2244
I82
(dp2245
sI77
(dp2246
ssI65
(dp2247
I82
(dp2248
sI51
g2215
sI44
g2200
sI58
g2235
ssI66
(dp2249
I9
g2096
sI28
g2161
sI53
g2223
sI30
g2174
ssI67
(dp2250
I49
g2205
sI15
g2122
ssI68
(dp2251
I17
g2132
sI18
g2134
sI3
g2066
ssI69
(dp2252
I9
g2097
sI23
g2141
sI28
g2162
sI73
(dp2253
ssI70
(dp2254
I53
g2224
ssI71
(dp2255
I29
g2168
sI14
g2116
ssI72
(dp2256
I22
g2136
ssI73
(dp2257
I69
g2253
sI9
g2098
sI53
g2225
sI23
g2142
sI28
g2163
sI29
g2170
sI62
g2242
ssI75
(dp2258
I50
g2210
sI52
g2218
sI79
(dp2259
ssI76
(dp2260
I42
g2197
sI59
g2237
ssI77
(dp2261
I64
g2246
sI9
g2100
sI44
g2202
sI37
g2184
sI53
g2226
ssI79
(dp2262
I4
g2077
sI75
g2259
sI52
g2219
sI55
g2231
ssI80
(dp2263
I3
g2069
sI37
g2185
sI9
g2101
sI50
g2211
sI22
g2137
sI90
(dp2264
ssI82
(dp2265
I64
g2245
sI65
g2248
ssI84
(dp2266
I33
g2178
sI2
g2064
sI7
g2085
sI11
g2111
sI16
g2125
sI56
g2233
sI50
g2212
sI52
g2220
sI24
g2149
sI25
g2152
sI27
g2157
ssI86
(dp2267
I35
g2182
sI4
g2076
sI38
g2190
sI49
g2207
sI50
g2213
sI55
g2230
sI25
g2153
ssI88
(dp2268
I16
g2126
sI1
g2061
sI27
g2158
sI7
g2086
ssI89
(dp2269
I60
g2239
ssI90
(dp2270
I80
g2264
sI8
g2093
sI37
g2188
sssg346
(dp2271
sg348
g82
sg349
g2050
sbag1
(g2
g3
Ntp2272
Rp2273
(dp2274
g7
(dp2275
I1
(dp2276
sI2
(dp2277
sI3
(dp2278
sI4
(dp2279
sI5
(dp2280
sI6
(dp2281
sI7
(dp2282
sI9
(dp2283
sI11
(dp2284
sI12
(dp2285
sI15
(dp2286
sI16
(dp2287
sI18
(dp2288
sI20
(dp2289
sI21
(dp2290
sI22
(dp2291
sI23
(dp2292
sI24
(dp2293
sI28
(dp2294
sI29
(dp2295
sI30
(dp2296
sI32
(dp2297
sI33
(dp2298
sI35
(dp2299
sI38
(dp2300
sI39
(dp2301
sI40
(dp2302
sI42
(dp2303
sI44
(dp2304
sI45
(dp2305
sI48
(dp2306
sI49
(dp2307
sI50
(dp2308
sI51
(dp2309
sI52
(dp2310
sI53
(dp2311
sI55
(dp2312
sI56
(dp2313
sI58
(dp2314
sI59
(dp2315
sI62
(dp2316
sI65
(dp2317
sI67
(dp2318
sI69
(dp2319
sI72
(dp2320
sI73
(dp2321
sI74
(dp2322
sI75
(dp2323
sI76
(dp2324
sI79
(dp2325
sI81
(dp2326
sI84
(dp2327
sI86
(dp2328
sI88
(dp2329
ssg81
g82
sg83
g82
sg84
(dp2330
I1
(dp2331
I88
(dp2332
sI59
(dp2333
sI84
(dp2334
sI6
(dp2335
ssI2
(dp2336
I88
(dp2337
ssI3
(dp2338
I18
(dp2339
sI44
(dp2340
ssI4
(dp2341
I52
(dp2342
ssI5
(dp2343
I72
(dp2344
sI18
(dp2345
sI51
(dp2346
ssI6
(dp2347
I1
g2335
sI84
(dp2348
ssI7
(dp2349
I16
(dp2350
sI81
(dp2351
sI84
(dp2352
sI56
(dp2353
sI88
(dp2354
sI58
(dp2355
ssI9
(dp2356
I73
(dp2357
sI69
(dp2358
sI62
(dp2359
sI23
(dp2360
ssI11
(dp2361
I24
(dp2362
ssI12
(dp2363
I88
(dp2364
sI42
(dp2365
ssI15
(dp2366
I88
(dp2367
sI40
(dp2368
sI84
(dp2369
ssI16
(dp2370
I88
(dp2371
sI7
g2350
ssI18
(dp2372
I32
(dp2373
sI65
(dp2374
sI3
g2339
sI5
g2345
ssI20
(dp2375
I84
(dp2376
ssI21
(dp2377
I84
(dp2378
ssI22
(dp2379
I32
(dp2380
ssI23
(dp2381
I9
g2360
sI69
(dp2382
sI30
(dp2383
ssI24
(dp2384
I48
(dp2385
sI35
(dp2386
sI11
g2362
sI55
(dp2387
ssI28
(dp2388
I73
(dp2389
sI69
(dp2390
sI30
(dp2391
ssI29
(dp2392
I53
(dp2393
ssI30
(dp2394
I28
g2391
sI23
g2383
ssI32
(dp2395
I18
g2373
sI38
(dp2396
sI22
g2380
ssI33
(dp2397
I84
(dp2398
ssI35
(dp2399
I24
g2386
sI48
(dp2400
sI55
(dp2401
ssI38
(dp2402
I32
g2396
ssI39
(dp2403
I51
(dp2404
ssI40
(dp2405
I15
g2368
ssI42
(dp2406
I12
g2365
sI55
(dp2407
ssI44
(dp2408
I3
g2340
ssI45
(dp2409
I58
(dp2410
ssI48
(dp2411
I24
g2385
sI35
g2400
ssI49
(dp2412
I67
(dp2413
sI52
(dp2414
sI86
(dp2415
sI55
(dp2416
ssI50
(dp2417
I74
(dp2418
sI86
(dp2419
ssI51
(dp2420
I5
g2346
sI39
g2404
ssI52
(dp2421
I49
g2414
sI4
g2342
sI55
(dp2422
ssI53
(dp2423
I29
g2393
ssI55
(dp2424
I35
g2401
sI42
g2407
sI79
(dp2425
sI49
g2416
sI52
g2422
sI86
(dp2426
sI24
g2387
ssI56
(dp2427
I7
g2353
ssI58
(dp2428
I45
g2410
sI7
g2355
ssI59
(dp2429
I88
(dp2430
sI1
g2333
sI84
(dp2431
ssI62
(dp2432
I9
g2359
sI75
(dp2433
ssI65
(dp2434
I18
g2374
ssI67
(dp2435
I76
(dp2436
sI49
g2413
sI84
(dp2437
ssI69
(dp2438
I9
g2358
sI28
g2390
sI23
g2382
ssI72
(dp2439
I5
g2344
ssI73
(dp2440
I9
g2357
sI28
g2389
ssI74
(dp2441
I50
g2418
ssI75
(dp2442
I62
g2433
ssI76
(dp2443
I67
g2436
ssI79
(dp2444
I55
g2425
ssI81
(dp2445
I84
(dp2446
sI7
g2351
ssI84
(dp2447
I1
g2334
sI67
g2437
sI33
g2398
sI6
g2348
sI7
g2352
sI15
g2369
sI81
g2446
sI20
g2376
sI21
g2378
sI88
(dp2448
sI59
g2431
ssI86
(dp2449
I49
g2415
sI50
g2419
sI55
g2426
ssI88
(dp2450
I1
g2332
sI2
g2337
sI7
g2354
sI12
g2364
sI15
g2367
sI16
g2371
sI84
g2448
sI59
g2430
sssg346
(dp2451
sg348
g82
sg349
g2330
sbag1
(g2
g3
Ntp2452
Rp2453
(dp2454
g7
(dp2455
I0
(dp2456
sI1
(dp2457
sI2
(dp2458
sI3
(dp2459
sI5
(dp2460
sI7
(dp2461
sI8
(dp2462
sI9
(dp2463
sI11
(dp2464
sI12
(dp2465
sI14
(dp2466
sI15
(dp2467
sI16
(dp2468
sI18
(dp2469
sI21
(dp2470
sI22
(dp2471
sI23
(dp2472
sI24
(dp2473
sI26
(dp2474
sI28
(dp2475
sI29
(dp2476
sI30
(dp2477
sI31
(dp2478
sI32
(dp2479
sI33
(dp2480
sI35
(dp2481
sI38
(dp2482
sI39
(dp2483
sI40
(dp2484
sI42
(dp2485
sI43
(dp2486
sI44
(dp2487
sI45
(dp2488
sI48
(dp2489
sI49
(dp2490
sI50
(dp2491
sI51
(dp2492
sI52
(dp2493
sI53
(dp2494
sI55
(dp2495
sI56
(dp2496
sI58
(dp2497
sI59
(dp2498
sI62
(dp2499
sI63
(dp2500
sI64
(dp2501
sI65
(dp2502
sI66
(dp2503
sI69
(dp2504
sI70
(dp2505
sI71
(dp2506
sI72
(dp2507
sI73
(dp2508
sI74
(dp2509
sI75
(dp2510
sI76
(dp2511
sI77
(dp2512
sI79
(dp2513
sI81
(dp2514
sI84
(dp2515
sI85
(dp2516
sI86
(dp2517
sI88
(dp2518
sI90
(dp2519
sI91
(dp2520
ssg81
g82
sg83
g82
sg84
(dp2521
I0
(dp2522
I24
(dp2523
ssI1
(dp2524
I16
(dp2525
ssI2
(dp2526
I48
(dp2527
sI3
(dp2528
sI15
(dp2529
ssI3
(dp2530
I24
(dp2531
sI2
g2528
ssI5
(dp2532
I24
(dp2533
sI18
(dp2534
sI21
(dp2535
ssI7
(dp2536
I16
(dp2537
sI33
(dp2538
sI12
(dp2539
sI76
(dp2540
sI84
(dp2541
ssI8
(dp2542
I26
(dp2543
ssI9
(dp2544
I73
(dp2545
sI29
(dp2546
sI62
(dp2547
ssI11
(dp2548
I48
(dp2549
sI44
(dp2550
sI84
(dp2551
sI38
(dp2552
sI30
(dp2553
ssI12
(dp2554
I16
(dp2555
sI58
(dp2556
sI84
(dp2557
sI7
g2539
ssI14
(dp2558
I72
(dp2559
sI48
(dp2560
sI44
(dp2561
ssI15
(dp2562
I48
(dp2563
sI33
(dp2564
sI2
g2529
ssI16
(dp2565
I33
(dp2566
sI12
g2555
sI1
g2525
sI7
g2537
ssI18
(dp2567
I5
g2534
ssI21
(dp2568
I56
(dp2569
sI84
(dp2570
sI5
g2535
ssI22
(dp2571
I32
(dp2572
sI91
(dp2573
sI85
(dp2574
ssI23
(dp2575
I53
(dp2576
sI29
(dp2577
sI30
(dp2578
sI69
(dp2579
ssI24
(dp2580
I0
g2523
sI32
(dp2581
sI3
g2531
sI5
g2533
sI45
(dp2582
sI48
(dp2583
sI49
(dp2584
ssI26
(dp2585
I8
g2543
ssI28
(dp2586
I66
(dp2587
sI53
(dp2588
sI29
(dp2589
ssI29
(dp2590
I70
(dp2591
sI9
g2546
sI53
(dp2592
sI23
g2577
sI90
(dp2593
sI91
(dp2594
sI28
g2589
sI63
(dp2595
ssI30
(dp2596
I69
(dp2597
sI73
(dp2598
sI11
g2553
sI53
(dp2599
sI23
g2578
sI63
(dp2600
ssI31
(dp2601
I71
(dp2602
ssI32
(dp2603
I24
g2581
sI22
g2572
ssI33
(dp2604
I16
g2566
sI40
(dp2605
sI15
g2564
sI84
(dp2606
sI7
g2538
ssI35
(dp2607
I75
(dp2608
ssI38
(dp2609
I11
g2552
sI69
(dp2610
ssI39
(dp2611
I72
(dp2612
sI58
(dp2613
sI45
(dp2614
ssI40
(dp2615
I33
g2605
ssI42
(dp2616
I65
(dp2617
sI72
(dp2618
sI43
(dp2619
sI50
(dp2620
sI84
(dp2621
sI58
(dp2622
sI59
(dp2623
ssI43
(dp2624
I58
(dp2625
sI42
g2619
ssI44
(dp2626
I72
(dp2627
sI11
g2550
sI45
(dp2628
sI14
g2561
sI51
(dp2629
sI58
(dp2630
ssI45
(dp2631
I64
(dp2632
sI39
g2614
sI72
(dp2633
sI44
g2628
sI48
(dp2634
sI24
g2582
sI58
(dp2635
ssI48
(dp2636
I2
g2527
sI11
g2549
sI45
g2634
sI14
g2560
sI15
g2563
sI49
(dp2637
sI24
g2583
ssI49
(dp2638
I64
(dp2639
sI79
(dp2640
sI48
g2637
sI24
g2584
sI84
(dp2641
sI86
(dp2642
sI88
(dp2643
sI58
(dp2644
ssI50
(dp2645
I74
(dp2646
sI42
g2620
ssI51
(dp2647
I65
(dp2648
sI44
g2629
ssI52
(dp2649
I79
(dp2650
sI84
(dp2651
sI55
(dp2652
ssI53
(dp2653
I69
(dp2654
sI70
(dp2655
sI23
g2576
sI28
g2588
sI29
g2592
sI30
g2599
sI63
(dp2656
ssI55
(dp2657
I74
(dp2658
sI52
g2652
ssI56
(dp2659
I21
g2569
ssI58
(dp2660
I39
g2613
sI72
(dp2661
sI12
g2556
sI42
g2622
sI43
g2625
sI44
g2630
sI45
g2635
sI49
g2644
sI84
(dp2662
ssI59
(dp2663
I42
g2623
sI76
(dp2664
ssI62
(dp2665
I9
g2547
sI73
(dp2666
ssI63
(dp2667
I29
g2595
sI30
g2600
sI53
g2656
ssI64
(dp2668
I49
g2639
sI45
g2632
sI77
(dp2669
ssI65
(dp2670
I42
g2617
sI51
g2648
sI84
(dp2671
ssI66
(dp2672
I28
g2587
ssI69
(dp2673
I30
g2597
sI23
g2579
sI70
(dp2674
sI38
g2610
sI53
g2654
ssI70
(dp2675
I53
g2655
sI69
g2674
sI29
g2591
ssI71
(dp2676
I31
g2602
ssI72
(dp2677
I39
g2612
sI42
g2618
sI44
g2627
sI45
g2633
sI14
g2559
sI85
(dp2678
sI58
g2661
ssI73
(dp2679
I9
g2545
sI30
g2598
sI62
g2666
ssI74
(dp2680
I50
g2646
sI55
g2658
ssI75
(dp2681
I88
(dp2682
sI35
g2608
ssI76
(dp2683
I59
g2664
sI7
g2540
ssI77
(dp2684
I64
g2669
ssI79
(dp2685
I88
(dp2686
sI49
g2640
sI84
(dp2687
sI52
g2650
ssI81
(dp2688
I88
(dp2689
ssI84
(dp2690
I65
g2671
sI33
g2606
sI42
g2621
sI11
g2551
sI12
g2557
sI79
g2687
sI49
g2641
sI52
g2651
sI21
g2570
sI88
(dp2691
sI7
g2541
sI58
g2662
ssI85
(dp2692
I72
g2678
sI91
(dp2693
sI22
g2574
ssI86
(dp2694
I49
g2642
ssI88
(dp2695
I81
g2689
sI75
g2682
sI84
g2691
sI49
g2643
sI79
g2686
ssI90
(dp2696
I29
g2593
ssI91
(dp2697
I29
g2594
sI22
g2573
sI85
g2693
sssg346
(dp2698
sg348
g82
sg349
g2521
sbag1
(g2
g3
Ntp2699
Rp2700
(dp2701
g7
(dp2702
I3
(dp2703
sI4
(dp2704
sI5
(dp2705
sI6
(dp2706
sI7
(dp2707
sI8
(dp2708
sI9
(dp2709
sI11
(dp2710
sI12
(dp2711
sI13
(dp2712
sI14
(dp2713
sI16
(dp2714
sI17
(dp2715
sI18
(dp2716
sI20
(dp2717
sI21
(dp2718
sI22
(dp2719
sI23
(dp2720
sI24
(dp2721
sI26
(dp2722
sI27
(dp2723
sI28
(dp2724
sI29
(dp2725
sI30
(dp2726
sI31
(dp2727
sI32
(dp2728
sI34
(dp2729
sI35
(dp2730
sI37
(dp2731
sI39
(dp2732
sI40
(dp2733
sI45
(dp2734
sI46
(dp2735
sI48
(dp2736
sI49
(dp2737
sI50
(dp2738
sI52
(dp2739
sI53
(dp2740
sI55
(dp2741
sI57
(dp2742
sI58
(dp2743
sI60
(dp2744
sI61
(dp2745
sI62
(dp2746
sI65
(dp2747
sI66
(dp2748
sI69
(dp2749
sI71
(dp2750
sI72
(dp2751
sI73
(dp2752
sI74
(dp2753
sI75
(dp2754
sI77
(dp2755
sI79
(dp2756
sI80
(dp2757
sI81
(dp2758
sI83
(dp2759
sI84
(dp2760
sI85
(dp2761
sI86
(dp2762
sI88
(dp2763
sI89
(dp2764
sI90
(dp2765
sI91
(dp2766
ssg81
g82
sg83
g82
sg84
(dp2767
I3
(dp2768
I5
(dp2769
sI37
(dp2770
ssI4
(dp2771
I50
(dp2772
sI74
(dp2773
sI79
(dp2774
ssI5
(dp2775
I65
(dp2776
sI34
(dp2777
sI3
g2769
sI37
(dp2778
sI39
(dp2779
sI72
(dp2780
sI74
(dp2781
sI13
(dp2782
sI80
(dp2783
sI18
(dp2784
sI85
(dp2785
sI24
(dp2786
ssI6
(dp2787
I40
(dp2788
ssI7
(dp2789
I16
(dp2790
sI57
(dp2791
sI27
(dp2792
sI88
(dp2793
ssI8
(dp2794
I16
(dp2795
sI26
(dp2796
sI84
(dp2797
ssI9
(dp2798
I66
(dp2799
sI69
(dp2800
sI73
(dp2801
sI13
(dp2802
sI45
(dp2803
sI62
(dp2804
sI29
(dp2805
sI30
(dp2806
sI31
(dp2807
ssI11
(dp2808
I24
(dp2809
sI48
(dp2810
ssI12
(dp2811
I16
(dp2812
sI57
(dp2813
ssI13
(dp2814
I9
g2802
sI50
(dp2815
sI5
g2782
ssI14
(dp2816
I34
(dp2817
sI37
(dp2818
sI72
(dp2819
sI85
(dp2820
sI24
(dp2821
sI90
(dp2822
ssI16
(dp2823
I8
g2795
sI12
g2812
sI7
g2790
ssI17
(dp2824
I80
(dp2825
ssI18
(dp2826
I80
(dp2827
sI90
(dp2828
sI5
g2784
sI37
(dp2829
ssI20
(dp2830
I31
(dp2831
ssI21
(dp2832
I26
(dp2833
sI84
(dp2834
sI46
(dp2835
ssI22
(dp2836
I50
(dp2837
ssI23
(dp2838
I69
(dp2839
sI29
(dp2840
sI30
(dp2841
sI31
(dp2842
ssI24
(dp2843
I32
(dp2844
sI5
g2786
sI74
(dp2845
sI11
g2809
sI77
(dp2846
sI14
g2821
sI45
(dp2847
sI48
(dp2848
sI31
(dp2849
ssI26
(dp2850
I8
g2796
sI80
(dp2851
sI31
(dp2852
sI21
g2833
sI71
(dp2853
ssI27
(dp2854
I35
(dp2855
sI7
g2792
sI75
(dp2856
sI77
(dp2857
sI81
(dp2858
sI88
(dp2859
sI57
(dp2860
sI58
(dp2861
sI60
(dp2862
ssI28
(dp2863
I66
(dp2864
sI69
(dp2865
sI61
(dp2866
ssI29
(dp2867
I9
g2805
sI53
(dp2868
sI69
(dp2869
sI23
g2840
ssI30
(dp2870
I9
g2806
sI34
(dp2871
sI53
(dp2872
sI66
(dp2873
sI23
g2841
ssI31
(dp2874
I32
(dp2875
sI69
(dp2876
sI9
g2807
sI48
(dp2877
sI20
g2831
sI23
g2842
sI24
g2849
sI26
g2852
sI91
(dp2878
sI58
(dp2879
ssI32
(dp2880
I80
(dp2881
sI24
g2844
sI88
(dp2882
sI31
g2875
ssI34
(dp2883
I14
g2817
sI5
g2777
sI30
g2871
sI37
(dp2884
ssI35
(dp2885
I27
g2855
sI75
(dp2886
sI55
(dp2887
ssI37
(dp2888
I34
g2884
sI3
g2770
sI5
g2778
sI14
g2818
sI18
g2829
sI90
(dp2889
sI91
(dp2890
sI58
(dp2891
ssI39
(dp2892
I72
(dp2893
sI5
g2779
sI85
(dp2894
ssI40
(dp2895
I6
g2788
ssI45
(dp2896
I24
g2847
sI9
g2803
sI83
(dp2897
sI61
(dp2898
ssI46
(dp2899
I89
(dp2900
sI84
(dp2901
sI21
g2835
ssI48
(dp2902
I24
g2848
sI11
g2810
sI31
g2877
ssI49
(dp2903
I74
(dp2904
sI86
(dp2905
sI79
(dp2906
ssI50
(dp2907
I4
g2772
sI86
(dp2908
sI74
(dp2909
sI13
g2815
sI22
g2837
sI57
(dp2910
sI60
(dp2911
ssI52
(dp2912
I84
(dp2913
sI86
(dp2914
ssI53
(dp2915
I29
g2868
sI30
g2872
sI69
(dp2916
ssI55
(dp2917
I35
g2887
sI86
(dp2918
sI79
(dp2919
ssI57
(dp2920
I7
g2791
sI12
g2813
sI50
g2910
sI88
(dp2921
sI27
g2860
sI60
(dp2922
ssI58
(dp2923
I37
g2891
sI72
(dp2924
sI77
(dp2925
sI85
(dp2926
sI90
(dp2927
sI27
g2861
sI31
g2879
ssI60
(dp2928
I57
g2922
sI50
g2911
sI27
g2862
ssI61
(dp2929
I28
g2866
sI45
g2898
ssI62
(dp2930
I9
g2804
sI69
(dp2931
sI73
(dp2932
ssI65
(dp2933
I5
g2776
ssI66
(dp2934
I9
g2799
sI28
g2864
sI69
(dp2935
sI30
g2873
ssI69
(dp2936
I66
g2935
sI9
g2800
sI53
g2916
sI23
g2839
sI28
g2865
sI29
g2869
sI62
g2931
sI31
g2876
ssI71
(dp2937
I26
g2853
sI83
(dp2938
ssI72
(dp2939
I80
(dp2940
sI58
g2924
sI5
g2780
sI14
g2819
sI39
g2893
ssI73
(dp2941
I9
g2801
sI62
g2932
ssI74
(dp2942
I4
g2773
sI5
g2781
sI81
(dp2943
sI79
(dp2944
sI49
g2904
sI50
g2909
sI86
(dp2945
sI24
g2845
ssI75
(dp2946
I27
g2856
sI35
g2886
sI79
(dp2947
ssI77
(dp2948
I24
g2846
sI58
g2925
sI27
g2857
ssI79
(dp2949
I4
g2774
sI74
g2944
sI75
g2947
sI49
g2906
sI86
(dp2950
sI55
g2919
ssI80
(dp2951
I32
g2881
sI5
g2783
sI72
g2940
sI17
g2825
sI18
g2827
sI85
(dp2952
sI26
g2851
sI91
(dp2953
ssI81
(dp2954
I88
(dp2955
sI74
g2943
sI27
g2858
ssI83
(dp2956
I45
g2897
sI71
g2938
ssI84
(dp2957
I8
g2797
sI52
g2913
sI21
g2834
sI46
g2901
ssI85
(dp2958
I80
g2952
sI58
g2926
sI5
g2785
sI14
g2820
sI39
g2894
ssI86
(dp2959
I74
g2945
sI79
g2950
sI49
g2905
sI50
g2908
sI52
g2914
sI55
g2918
ssI88
(dp2960
I32
g2882
sI57
g2921
sI27
g2859
sI81
g2955
sI7
g2793
ssI89
(dp2961
I46
g2900
ssI90
(dp2962
I58
g2927
sI18
g2828
sI37
g2889
sI14
g2822
ssI91
(dp2963
I80
g2953
sI37
g2890
sI31
g2878
sssg346
(dp2964
sg348
g82
sg349
g2767
sbag1
(g2
g3
Ntp2965
Rp2966
(dp2967
g7
(dp2968
I0
(dp2969
sI1
(dp2970
sI3
(dp2971
sI5
(dp2972
sI6
(dp2973
sI7
(dp2974
sI8
(dp2975
sI9
(dp2976
sI12
(dp2977
sI13
(dp2978
sI14
(dp2979
sI17
(dp2980
sI18
(dp2981
sI21
(dp2982
sI22
(dp2983
sI23
(dp2984
sI24
(dp2985
sI26
(dp2986
sI27
(dp2987
sI29
(dp2988
sI30
(dp2989
sI32
(dp2990
sI34
(dp2991
sI35
(dp2992
sI37
(dp2993
sI38
(dp2994
sI40
(dp2995
sI45
(dp2996
sI49
(dp2997
sI50
(dp2998
sI53
(dp2999
sI55
(dp3000
sI57
(dp3001
sI58
(dp3002
sI60
(dp3003
sI62
(dp3004
sI66
(dp3005
sI67
(dp3006
sI69
(dp3007
sI72
(dp3008
sI73
(dp3009
sI74
(dp3010
sI75
(dp3011
sI79
(dp3012
sI80
(dp3013
sI83
(dp3014
sI84
(dp3015
sI85
(dp3016
sI86
(dp3017
sI88
(dp3018
sI91
(dp3019
ssg81
g82
sg83
g82
sg84
(dp3020
I0
(dp3021
I24
(dp3022
ssI1
(dp3023
I27
(dp3024
sI7
(dp3025
ssI3
(dp3026
I83
(dp3027
ssI5
(dp3028
I72
(dp3029
sI34
(dp3030
ssI6
(dp3031
I40
(dp3032
ssI7
(dp3033
I1
g3025
sI27
(dp3034
sI12
(dp3035
ssI8
(dp3036
I26
(dp3037
ssI9
(dp3038
I73
(dp3039
sI66
(dp3040
sI62
(dp3041
ssI12
(dp3042
I7
g3035
ssI13
(dp3043
I88
(dp3044
ssI14
(dp3045
I58
(dp3046
sI37
(dp3047
ssI17
(dp3048
I18
(dp3049
ssI18
(dp3050
I17
g3049
sI34
(dp3051
sI37
(dp3052
ssI21
(dp3053
I88
(dp3054
sI66
(dp3055
ssI22
(dp3056
I91
(dp3057
ssI23
(dp3058
I29
(dp3059
sI30
(dp3060
ssI24
(dp3061
I0
g3022
ssI26
(dp3062
I8
g3037
ssI27
(dp3063
I1
g3024
sI7
g3034
ssI29
(dp3064
I23
g3059
sI53
(dp3065
sI30
(dp3066
sI69
(dp3067
ssI30
(dp3068
I29
g3066
sI23
g3060
ssI32
(dp3069
I91
(dp3070
ssI34
(dp3071
I18
g3051
sI84
(dp3072
sI5
g3030
ssI35
(dp3073
I49
(dp3074
sI50
(dp3075
sI75
(dp3076
ssI37
(dp3077
I58
(dp3078
sI84
(dp3079
sI18
g3052
sI14
g3047
ssI38
(dp3080
I80
(dp3081
sI91
(dp3082
ssI40
(dp3083
I6
g3032
ssI45
(dp3084
I58
(dp3085
sI83
(dp3086
ssI49
(dp3087
I35
g3074
sI86
(dp3088
ssI50
(dp3089
I74
(dp3090
sI35
g3075
sI86
(dp3091
ssI53
(dp3092
I29
g3065
sI69
(dp3093
ssI55
(dp3094
I74
(dp3095
sI79
(dp3096
ssI57
(dp3097
I88
(dp3098
sI60
(dp3099
ssI58
(dp3100
I72
(dp3101
sI84
(dp3102
sI37
g3078
sI14
g3046
sI45
g3085
ssI60
(dp3103
I57
g3099
ssI62
(dp3104
I9
g3041
ssI66
(dp3105
I9
g3040
sI21
g3055
ssI67
(dp3106
I84
(dp3107
ssI69
(dp3108
I29
g3067
sI53
g3093
ssI72
(dp3109
I58
g3101
sI5
g3029
ssI73
(dp3110
I9
g3039
ssI74
(dp3111
I50
g3090
sI55
g3095
ssI75
(dp3112
I35
g3076
sI86
(dp3113
ssI79
(dp3114
I55
g3096
ssI80
(dp3115
I85
(dp3116
sI38
g3081
ssI83
(dp3117
I3
g3027
sI45
g3086
ssI84
(dp3118
I34
g3072
sI67
g3107
sI58
g3102
sI37
g3079
ssI85
(dp3119
I80
g3116
sI91
(dp3120
ssI86
(dp3121
I49
g3088
sI50
g3091
sI75
g3113
ssI88
(dp3122
I57
g3098
sI21
g3054
sI13
g3044
ssI91
(dp3123
I32
g3070
sI38
g3082
sI85
g3120
sI22
g3057
sssg346
(dp3124
sg348
g82
sg349
g3020
sbag1
(g2
g3
Ntp3125
Rp3126
(dp3127
g7
(dp3128
I1
(dp3129
sI2
(dp3130
sI3
(dp3131
sI4
(dp3132
sI5
(dp3133
sI6
(dp3134
sI7
(dp3135
sI8
(dp3136
sI9
(dp3137
sI11
(dp3138
sI12
(dp3139
sI14
(dp3140
sI16
(dp3141
sI17
(dp3142
sI23
(dp3143
sI24
(dp3144
sI26
(dp3145
sI27
(dp3146
sI28
(dp3147
sI29
(dp3148
sI30
(dp3149
sI32
(dp3150
sI35
(dp3151
sI37
(dp3152
sI38
(dp3153
sI39
(dp3154
sI40
(dp3155
sI43
(dp3156
sI44
(dp3157
sI45
(dp3158
sI46
(dp3159
sI49
(dp3160
sI50
(dp3161
sI51
(dp3162
sI52
(dp3163
sI53
(dp3164
sI55
(dp3165
sI57
(dp3166
sI58
(dp3167
sI60
(dp3168
sI62
(dp3169
sI65
(dp3170
sI66
(dp3171
sI67
(dp3172
sI68
(dp3173
sI69
(dp3174
sI70
(dp3175
sI71
(dp3176
sI72
(dp3177
sI73
(dp3178
sI74
(dp3179
sI75
(dp3180
sI76
(dp3181
sI77
(dp3182
sI81
(dp3183
sI82
(dp3184
sI83
(dp3185
sI84
(dp3186
sI86
(dp3187
sI88
(dp3188
sI89
(dp3189
sI91
(dp3190
ssg81
g82
sg83
g82
sg84
(dp3191
I1
(dp3192
I12
(dp3193
ssI2
(dp3194
I88
(dp3195
ssI3
(dp3196
I72
(dp3197
sI43
(dp3198
sI83
(dp3199
sI24
(dp3200
ssI4
(dp3201
I49
(dp3202
sI52
(dp3203
sI86
(dp3204
ssI5
(dp3205
I37
(dp3206
sI72
(dp3207
sI11
(dp3208
sI44
(dp3209
sI45
(dp3210
sI14
(dp3211
ssI6
(dp3212
I40
(dp3213
ssI7
(dp3214
I88
(dp3215
sI81
(dp3216
sI12
(dp3217
sI16
(dp3218
ssI8
(dp3219
I26
(dp3220
sI83
(dp3221
ssI9
(dp3222
I73
(dp3223
sI62
(dp3224
ssI11
(dp3225
I26
(dp3226
sI44
(dp3227
sI5
g3208
ssI12
(dp3228
I1
g3193
sI7
g3217
sI43
(dp3229
sI77
(dp3230
sI16
(dp3231
sI84
(dp3232
ssI14
(dp3233
I44
(dp3234
sI45
(dp3235
sI5
g3211
ssI16
(dp3236
I84
(dp3237
sI12
g3231
sI7
g3218
ssI17
(dp3238
I84
(dp3239
sI68
(dp3240
ssI23
(dp3241
I30
(dp3242
ssI24
(dp3243
I3
g3200
sI69
(dp3244
sI45
(dp3245
sI53
(dp3246
sI28
(dp3247
sI29
(dp3248
ssI26
(dp3249
I32
(dp3250
sI8
g3220
sI11
g3226
sI52
(dp3251
ssI27
(dp3252
I81
(dp3253
sI73
(dp3254
ssI28
(dp3255
I24
g3247
sI70
(dp3256
sI69
(dp3257
sI62
(dp3258
sI29
(dp3259
ssI29
(dp3260
I24
g3248
sI70
(dp3261
sI28
g3259
sI53
(dp3262
sI30
(dp3263
ssI30
(dp3264
I29
g3263
sI23
g3242
ssI32
(dp3265
I26
g3250
sI38
(dp3266
ssI35
(dp3267
I49
(dp3268
sI50
(dp3269
sI75
(dp3270
sI52
(dp3271
ssI37
(dp3272
I82
(dp3273
sI58
(dp3274
sI84
(dp3275
sI77
(dp3276
sI5
g3206
ssI38
(dp3277
I32
g3266
sI39
(dp3278
ssI39
(dp3279
I57
(dp3280
sI38
g3278
ssI40
(dp3281
I88
(dp3282
sI84
(dp3283
sI6
g3213
ssI43
(dp3284
I3
g3198
sI12
g3229
sI45
(dp3285
ssI44
(dp3286
I11
g3227
sI51
(dp3287
sI5
g3209
sI14
g3234
sI45
(dp3288
ssI45
(dp3289
I65
(dp3290
sI5
g3210
sI43
g3285
sI44
g3288
sI14
g3235
sI24
g3245
ssI46
(dp3291
I57
(dp3292
sI89
(dp3293
ssI49
(dp3294
I35
g3268
sI4
g3202
sI73
(dp3295
sI50
(dp3296
sI84
(dp3297
sI86
(dp3298
ssI50
(dp3299
I49
g3296
sI35
g3269
sI86
(dp3300
ssI51
(dp3301
I44
g3287
sI71
(dp3302
ssI52
(dp3303
I26
g3251
sI35
g3271
sI4
g3203
sI86
(dp3304
ssI53
(dp3305
I24
g3246
sI66
(dp3306
sI29
g3262
ssI55
(dp3307
I74
(dp3308
ssI57
(dp3309
I88
(dp3310
sI60
(dp3311
sI46
g3292
sI39
g3280
ssI58
(dp3312
I65
(dp3313
sI84
(dp3314
sI37
g3274
ssI60
(dp3315
I57
g3311
ssI62
(dp3316
I9
g3224
sI28
g3258
sI69
(dp3317
ssI65
(dp3318
I58
g3313
sI91
(dp3319
sI45
g3290
ssI66
(dp3320
I53
g3306
ssI67
(dp3321
I76
(dp3322
sI84
(dp3323
ssI68
(dp3324
I17
g3240
ssI69
(dp3325
I24
g3244
sI28
g3257
sI70
(dp3326
sI62
g3317
ssI70
(dp3327
I28
g3256
sI29
g3261
sI69
g3326
ssI71
(dp3328
I51
g3302
ssI72
(dp3329
I3
g3197
sI5
g3207
ssI73
(dp3330
I9
g3223
sI27
g3254
sI49
g3295
ssI74
(dp3331
I86
(dp3332
sI55
g3308
ssI75
(dp3333
I35
g3270
ssI76
(dp3334
I81
(dp3335
sI67
g3322
ssI77
(dp3336
I12
g3230
sI84
(dp3337
sI37
g3276
ssI81
(dp3338
I27
g3253
sI76
g3335
sI7
g3216
ssI82
(dp3339
I37
g3273
ssI83
(dp3340
I8
g3221
sI3
g3199
ssI84
(dp3341
I67
g3323
sI37
g3275
sI49
g3297
sI40
g3283
sI12
g3232
sI77
g3337
sI16
g3237
sI17
g3239
sI88
(dp3342
sI58
g3314
ssI86
(dp3343
I4
g3204
sI50
g3300
sI52
g3304
sI74
g3332
sI49
g3298
ssI88
(dp3344
I2
g3195
sI7
g3215
sI40
g3282
sI84
g3342
sI89
(dp3345
sI57
g3310
ssI89
(dp3346
I88
g3345
sI46
g3293
ssI91
(dp3347
I65
g3319
sssg346
(dp3348
sg348
g82
sg349
g3191
sba.